ARM GAS  C:\Users\aless\AppData\Local\Temp\ccq8q7Xz.s 			page 1


   1              		.syntax unified
   2              		.cpu cortex-m3
   3              		.fpu softvfp
   4              		.eabi_attribute 20, 1
   5              		.eabi_attribute 21, 1
   6              		.eabi_attribute 23, 3
   7              		.eabi_attribute 24, 1
   8              		.eabi_attribute 25, 1
   9              		.eabi_attribute 26, 1
  10              		.eabi_attribute 30, 1
  11              		.eabi_attribute 34, 1
  12              		.eabi_attribute 18, 4
  13              		.thumb
  14              		.syntax unified
  15              		.file	"25LC256.c"
  16              		.text
  17              	.Ltext0:
  18              		.cfi_sections	.debug_frame
  19              		.section	.text.EEPROM_readStatus,"ax",%progbits
  20              		.align	2
  21              		.global	EEPROM_readStatus
  22              		.thumb
  23              		.thumb_func
  24              		.type	EEPROM_readStatus, %function
  25              	EEPROM_readStatus:
  26              	.LFB1:
  27              		.file 1 "25LC256.c"
   1:25LC256.c     **** /* ========================================
   2:25LC256.c     ****  *
   3:25LC256.c     ****  * Copyright YOUR COMPANY, THE YEAR
   4:25LC256.c     ****  * All Rights Reserved
   5:25LC256.c     ****  * UNPUBLISHED, LICENSED SOFTWARE.
   6:25LC256.c     ****  *
   7:25LC256.c     ****  * CONFIDENTIAL AND PROPRIETARY INFORMATION
   8:25LC256.c     ****  * WHICH IS THE PROPERTY OF your company.
   9:25LC256.c     ****  *
  10:25LC256.c     ****  * ========================================
  11:25LC256.c     **** */
  12:25LC256.c     **** 
  13:25LC256.c     **** #include "25LC256.h"
  14:25LC256.c     **** 
  15:25LC256.c     **** uint8_t eeprom_Status;
  16:25LC256.c     **** 
  17:25LC256.c     **** void EEPROM_loadSettings(uint8_t* config_reg, uint16_t* index_eeprom) {
  18:25LC256.c     ****     
  19:25LC256.c     ****     *config_reg = EEPROM_readByte(0x0002);
  20:25LC256.c     ****     EEPROM_readPage(0x0000, (uint8_t*) index_eeprom, 2);
  21:25LC256.c     ****     
  22:25LC256.c     **** }
  23:25LC256.c     **** 
  24:25LC256.c     **** /** ====== Helper Functions ====== **/
  25:25LC256.c     **** 
  26:25LC256.c     **** uint8_t EEPROM_readStatus() {
  28              		.loc 1 26 0
  29              		.cfi_startproc
  30              		@ args = 0, pretend = 0, frame = 0
  31              		@ frame_needed = 0, uses_anonymous_args = 0
ARM GAS  C:\Users\aless\AppData\Local\Temp\ccq8q7Xz.s 			page 2


  32 0000 08B5     		push	{r3, lr}
  33              		.cfi_def_cfa_offset 8
  34              		.cfi_offset 3, -8
  35              		.cfi_offset 14, -4
  27:25LC256.c     **** 	return SPI_Interface_ReadByte_EEPROM(SPI_EEPROM_RDSR);
  36              		.loc 1 27 0
  37 0002 0520     		movs	r0, #5
  38 0004 FFF7FEFF 		bl	SPI_Interface_ReadByte_EEPROM
  39              	.LVL0:
  28:25LC256.c     **** }
  40              		.loc 1 28 0
  41 0008 08BD     		pop	{r3, pc}
  42              		.cfi_endproc
  43              	.LFE1:
  44              		.size	EEPROM_readStatus, .-EEPROM_readStatus
  45 000a 00BF     		.section	.text.EEPROM_writeEnable,"ax",%progbits
  46              		.align	2
  47              		.global	EEPROM_writeEnable
  48              		.thumb
  49              		.thumb_func
  50              		.type	EEPROM_writeEnable, %function
  51              	EEPROM_writeEnable:
  52              	.LFB2:
  29:25LC256.c     **** 
  30:25LC256.c     **** void EEPROM_writeEnable() {
  53              		.loc 1 30 0
  54              		.cfi_startproc
  55              		@ args = 0, pretend = 0, frame = 0
  56              		@ frame_needed = 0, uses_anonymous_args = 0
  57 0000 08B5     		push	{r3, lr}
  58              		.cfi_def_cfa_offset 8
  59              		.cfi_offset 3, -8
  60              		.cfi_offset 14, -4
  31:25LC256.c     **** 	/* Send 1-byte Instruction */
  32:25LC256.c     **** 	SPI_Interface_tradeByte_EEPROM(SPI_EEPROM_WREN);
  61              		.loc 1 32 0
  62 0002 0620     		movs	r0, #6
  63 0004 FFF7FEFF 		bl	SPI_Interface_tradeByte_EEPROM
  64              	.LVL1:
  65 0008 08BD     		pop	{r3, pc}
  66              		.cfi_endproc
  67              	.LFE2:
  68              		.size	EEPROM_writeEnable, .-EEPROM_writeEnable
  69 000a 00BF     		.section	.text.EEPROM_writeDisable,"ax",%progbits
  70              		.align	2
  71              		.global	EEPROM_writeDisable
  72              		.thumb
  73              		.thumb_func
  74              		.type	EEPROM_writeDisable, %function
  75              	EEPROM_writeDisable:
  76              	.LFB3:
  33:25LC256.c     **** }
  34:25LC256.c     **** 
  35:25LC256.c     **** void EEPROM_writeDisable() {
  77              		.loc 1 35 0
  78              		.cfi_startproc
  79              		@ args = 0, pretend = 0, frame = 0
ARM GAS  C:\Users\aless\AppData\Local\Temp\ccq8q7Xz.s 			page 3


  80              		@ frame_needed = 0, uses_anonymous_args = 0
  81 0000 08B5     		push	{r3, lr}
  82              		.cfi_def_cfa_offset 8
  83              		.cfi_offset 3, -8
  84              		.cfi_offset 14, -4
  36:25LC256.c     **** 	/* Send 1-byte Instruction */
  37:25LC256.c     **** 	SPI_Interface_tradeByte_EEPROM(SPI_EEPROM_WRDI);
  85              		.loc 1 37 0
  86 0002 0420     		movs	r0, #4
  87 0004 FFF7FEFF 		bl	SPI_Interface_tradeByte_EEPROM
  88              	.LVL2:
  89 0008 08BD     		pop	{r3, pc}
  90              		.cfi_endproc
  91              	.LFE3:
  92              		.size	EEPROM_writeDisable, .-EEPROM_writeDisable
  93 000a 00BF     		.section	.text.EEPROM_readByte,"ax",%progbits
  94              		.align	2
  95              		.global	EEPROM_readByte
  96              		.thumb
  97              		.thumb_func
  98              		.type	EEPROM_readByte, %function
  99              	EEPROM_readByte:
 100              	.LFB4:
  38:25LC256.c     **** }
  39:25LC256.c     **** 
  40:25LC256.c     **** /** ====== User-level Functions ====== **/
  41:25LC256.c     **** 
  42:25LC256.c     **** uint8_t EEPROM_readByte(uint16_t addr) {
 101              		.loc 1 42 0
 102              		.cfi_startproc
 103              		@ args = 0, pretend = 0, frame = 8
 104              		@ frame_needed = 0, uses_anonymous_args = 0
 105              	.LVL3:
 106 0000 00B5     		push	{lr}
 107              		.cfi_def_cfa_offset 4
 108              		.cfi_offset 14, -4
 109 0002 83B0     		sub	sp, sp, #12
 110              		.cfi_def_cfa_offset 16
  43:25LC256.c     ****     
  44:25LC256.c     **** 	/* Prepare the TX data packet: instruction + address */
  45:25LC256.c     **** 	uint8_t dataTX[3] = {SPI_EEPROM_READ, ((addr & 0xFF00) >> 8), (addr & 0x00FF)};
 111              		.loc 1 45 0
 112 0004 0321     		movs	r1, #3
 113 0006 8DF80410 		strb	r1, [sp, #4]
 114 000a 030A     		lsrs	r3, r0, #8
 115 000c 8DF80530 		strb	r3, [sp, #5]
 116 0010 8DF80600 		strb	r0, [sp, #6]
  46:25LC256.c     **** 	
  47:25LC256.c     **** 	/* Prepare the RX byte */
  48:25LC256.c     **** 	uint8_t dataRX = 0;
 117              		.loc 1 48 0
 118 0014 02AA     		add	r2, sp, #8
 119 0016 0023     		movs	r3, #0
 120 0018 02F8053D 		strb	r3, [r2, #-5]!
  49:25LC256.c     **** 	
  50:25LC256.c     **** 	/* Read 1 byte from addr */
  51:25LC256.c     **** 	SPI_Interface_Multi_RW_EEPROM(dataTX, 3, &dataRX, 1);
ARM GAS  C:\Users\aless\AppData\Local\Temp\ccq8q7Xz.s 			page 4


 121              		.loc 1 51 0
 122 001c 0123     		movs	r3, #1
 123 001e 01A8     		add	r0, sp, #4
 124              	.LVL4:
 125 0020 FFF7FEFF 		bl	SPI_Interface_Multi_RW_EEPROM
 126              	.LVL5:
  52:25LC256.c     **** 	
  53:25LC256.c     **** 	return dataRX;
  54:25LC256.c     **** }
 127              		.loc 1 54 0
 128 0024 9DF80300 		ldrb	r0, [sp, #3]	@ zero_extendqisi2
 129 0028 03B0     		add	sp, sp, #12
 130              		.cfi_def_cfa_offset 4
 131              		@ sp needed
 132 002a 5DF804FB 		ldr	pc, [sp], #4
 133              		.cfi_endproc
 134              	.LFE4:
 135              		.size	EEPROM_readByte, .-EEPROM_readByte
 136 002e 00BF     		.section	.text.EEPROM_writeByte,"ax",%progbits
 137              		.align	2
 138              		.global	EEPROM_writeByte
 139              		.thumb
 140              		.thumb_func
 141              		.type	EEPROM_writeByte, %function
 142              	EEPROM_writeByte:
 143              	.LFB5:
  55:25LC256.c     **** 
  56:25LC256.c     **** void EEPROM_writeByte(uint16_t addr, uint8_t dataByte) {
 144              		.loc 1 56 0
 145              		.cfi_startproc
 146              		@ args = 0, pretend = 0, frame = 8
 147              		@ frame_needed = 0, uses_anonymous_args = 0
 148              	.LVL6:
 149 0000 30B5     		push	{r4, r5, lr}
 150              		.cfi_def_cfa_offset 12
 151              		.cfi_offset 4, -12
 152              		.cfi_offset 5, -8
 153              		.cfi_offset 14, -4
 154 0002 83B0     		sub	sp, sp, #12
 155              		.cfi_def_cfa_offset 24
 156 0004 0446     		mov	r4, r0
 157 0006 0D46     		mov	r5, r1
  57:25LC256.c     ****     /* Enable WRITE operations */
  58:25LC256.c     ****     EEPROM_writeEnable();
 158              		.loc 1 58 0
 159 0008 FFF7FEFF 		bl	EEPROM_writeEnable
 160              	.LVL7:
  59:25LC256.c     **** 	
  60:25LC256.c     **** 	/* Prepare the TX packet */
  61:25LC256.c     ****     uint8_t dataTX[4] = {SPI_EEPROM_WRITE, ((addr & 0xFF00) >> 8), (addr & 0x00FF), dataByte};
 161              		.loc 1 61 0
 162 000c 0223     		movs	r3, #2
 163 000e 8DF80430 		strb	r3, [sp, #4]
 164 0012 230A     		lsrs	r3, r4, #8
 165 0014 8DF80530 		strb	r3, [sp, #5]
 166 0018 8DF80640 		strb	r4, [sp, #6]
 167 001c 8DF80750 		strb	r5, [sp, #7]
ARM GAS  C:\Users\aless\AppData\Local\Temp\ccq8q7Xz.s 			page 5


  62:25LC256.c     **** 	/* Nothing to RX... */
  63:25LC256.c     **** 	uint8_t temp = 0;
 168              		.loc 1 63 0
 169 0020 0023     		movs	r3, #0
 170 0022 02AA     		add	r2, sp, #8
 171 0024 02F8053D 		strb	r3, [r2, #-5]!
  64:25LC256.c     **** 	
  65:25LC256.c     **** 	/* Write 1 byte to addr */
  66:25LC256.c     **** 	SPI_Interface_Multi_RW_EEPROM(dataTX, 4, &temp, 0);
 172              		.loc 1 66 0
 173 0028 0421     		movs	r1, #4
 174 002a 0DEB0100 		add	r0, sp, r1
 175 002e FFF7FEFF 		bl	SPI_Interface_Multi_RW_EEPROM
 176              	.LVL8:
  67:25LC256.c     ****     
  68:25LC256.c     ****     /* Disable WRITE operations */
  69:25LC256.c     ****     //EEPROM_writeDisable();
  70:25LC256.c     ****     
  71:25LC256.c     ****     // Wait for write complete
  72:25LC256.c     ****     //EEPROM_waitForWriteComplete();
  73:25LC256.c     **** 	
  74:25LC256.c     **** }
 177              		.loc 1 74 0
 178 0032 03B0     		add	sp, sp, #12
 179              		.cfi_def_cfa_offset 12
 180              		@ sp needed
 181 0034 30BD     		pop	{r4, r5, pc}
 182              		.cfi_endproc
 183              	.LFE5:
 184              		.size	EEPROM_writeByte, .-EEPROM_writeByte
 185 0036 00BF     		.section	.text.EEPROM_readPage,"ax",%progbits
 186              		.align	2
 187              		.global	EEPROM_readPage
 188              		.thumb
 189              		.thumb_func
 190              		.type	EEPROM_readPage, %function
 191              	EEPROM_readPage:
 192              	.LFB6:
  75:25LC256.c     **** 
  76:25LC256.c     **** void EEPROM_readPage(uint16_t addr, uint8_t* dataRX, uint8_t nBytes) {
 193              		.loc 1 76 0
 194              		.cfi_startproc
 195              		@ args = 0, pretend = 0, frame = 8
 196              		@ frame_needed = 0, uses_anonymous_args = 0
 197              	.LVL9:
 198 0000 10B5     		push	{r4, lr}
 199              		.cfi_def_cfa_offset 8
 200              		.cfi_offset 4, -8
 201              		.cfi_offset 14, -4
 202 0002 82B0     		sub	sp, sp, #8
 203              		.cfi_def_cfa_offset 16
  77:25LC256.c     ****     
  78:25LC256.c     ****     //CyGlobalIntDisable;
  79:25LC256.c     **** 	/* Prepare the TX data packet: instruction + address */
  80:25LC256.c     **** 	uint8_t dataTX[3] = {SPI_EEPROM_READ, ((addr & 0xFF00) >> 8), (addr & 0x00FF)};
 204              		.loc 1 80 0
 205 0004 0324     		movs	r4, #3
ARM GAS  C:\Users\aless\AppData\Local\Temp\ccq8q7Xz.s 			page 6


 206 0006 8DF80440 		strb	r4, [sp, #4]
 207 000a 030A     		lsrs	r3, r0, #8
 208 000c 8DF80530 		strb	r3, [sp, #5]
 209 0010 8DF80600 		strb	r0, [sp, #6]
  81:25LC256.c     **** 	
  82:25LC256.c     **** 	/* Read the nBytes */
  83:25LC256.c     **** 	SPI_Interface_Multi_RW_EEPROM(dataTX, 3, dataRX, nBytes);
 210              		.loc 1 83 0
 211 0014 1346     		mov	r3, r2
 212 0016 0A46     		mov	r2, r1
 213              	.LVL10:
 214 0018 2146     		mov	r1, r4
 215              	.LVL11:
 216 001a 01A8     		add	r0, sp, #4
 217              	.LVL12:
 218 001c FFF7FEFF 		bl	SPI_Interface_Multi_RW_EEPROM
 219              	.LVL13:
  84:25LC256.c     ****     
  85:25LC256.c     ****     //CyGlobalIntEnable;
  86:25LC256.c     **** }
 220              		.loc 1 86 0
 221 0020 02B0     		add	sp, sp, #8
 222              		.cfi_def_cfa_offset 8
 223              		@ sp needed
 224 0022 10BD     		pop	{r4, pc}
 225              		.cfi_endproc
 226              	.LFE6:
 227              		.size	EEPROM_readPage, .-EEPROM_readPage
 228              		.section	.text.EEPROM_loadSettings,"ax",%progbits
 229              		.align	2
 230              		.global	EEPROM_loadSettings
 231              		.thumb
 232              		.thumb_func
 233              		.type	EEPROM_loadSettings, %function
 234              	EEPROM_loadSettings:
 235              	.LFB0:
  17:25LC256.c     ****     
 236              		.loc 1 17 0
 237              		.cfi_startproc
 238              		@ args = 0, pretend = 0, frame = 0
 239              		@ frame_needed = 0, uses_anonymous_args = 0
 240              	.LVL14:
 241 0000 38B5     		push	{r3, r4, r5, lr}
 242              		.cfi_def_cfa_offset 16
 243              		.cfi_offset 3, -16
 244              		.cfi_offset 4, -12
 245              		.cfi_offset 5, -8
 246              		.cfi_offset 14, -4
 247 0002 0546     		mov	r5, r0
 248 0004 0C46     		mov	r4, r1
  19:25LC256.c     ****     EEPROM_readPage(0x0000, (uint8_t*) index_eeprom, 2);
 249              		.loc 1 19 0
 250 0006 0220     		movs	r0, #2
 251              	.LVL15:
 252 0008 FFF7FEFF 		bl	EEPROM_readByte
 253              	.LVL16:
 254 000c 2870     		strb	r0, [r5]
ARM GAS  C:\Users\aless\AppData\Local\Temp\ccq8q7Xz.s 			page 7


  20:25LC256.c     ****     
 255              		.loc 1 20 0
 256 000e 0222     		movs	r2, #2
 257 0010 2146     		mov	r1, r4
 258 0012 0020     		movs	r0, #0
 259 0014 FFF7FEFF 		bl	EEPROM_readPage
 260              	.LVL17:
 261 0018 38BD     		pop	{r3, r4, r5, pc}
 262              		.cfi_endproc
 263              	.LFE0:
 264              		.size	EEPROM_loadSettings, .-EEPROM_loadSettings
 265 001a 00BF     		.section	.text.EEPROM_writePage,"ax",%progbits
 266              		.align	2
 267              		.global	EEPROM_writePage
 268              		.thumb
 269              		.thumb_func
 270              		.type	EEPROM_writePage, %function
 271              	EEPROM_writePage:
 272              	.LFB7:
  87:25LC256.c     **** 
  88:25LC256.c     **** 
  89:25LC256.c     **** void EEPROM_writePage(uint16_t addr, uint8_t* data, uint8_t nBytes) {
 273              		.loc 1 89 0
 274              		.cfi_startproc
 275              		@ args = 0, pretend = 0, frame = 8
 276              		@ frame_needed = 1, uses_anonymous_args = 0
 277              	.LVL18:
 278 0000 2DE9F041 		push	{r4, r5, r6, r7, r8, lr}
 279              		.cfi_def_cfa_offset 24
 280              		.cfi_offset 4, -24
 281              		.cfi_offset 5, -20
 282              		.cfi_offset 6, -16
 283              		.cfi_offset 7, -12
 284              		.cfi_offset 8, -8
 285              		.cfi_offset 14, -4
 286 0004 82B0     		sub	sp, sp, #8
 287              		.cfi_def_cfa_offset 32
 288 0006 00AF     		add	r7, sp, #0
 289              		.cfi_def_cfa_register 7
 290 0008 0546     		mov	r5, r0
 291 000a 8846     		mov	r8, r1
 292 000c 1446     		mov	r4, r2
  90:25LC256.c     **** 	
  91:25LC256.c     ****     CyGlobalIntDisable;
 293              		.loc 1 91 0
 294              		.syntax unified
 295              	@ 91 "25LC256.c" 1
 296 000e 72B6     		CPSID   i
 297              	@ 0 "" 2
  92:25LC256.c     ****     
  93:25LC256.c     ****     /* Enable WRITE operations */
  94:25LC256.c     ****     EEPROM_writeEnable();
 298              		.loc 1 94 0
 299              		.thumb
 300              		.syntax unified
 301 0010 FFF7FEFF 		bl	EEPROM_writeEnable
 302              	.LVL19:
ARM GAS  C:\Users\aless\AppData\Local\Temp\ccq8q7Xz.s 			page 8


  95:25LC256.c     **** 	
  96:25LC256.c     ****     CyDelayUs(1);
 303              		.loc 1 96 0
 304 0014 0120     		movs	r0, #1
 305 0016 FFF7FEFF 		bl	CyDelayUs
 306              	.LVL20:
  97:25LC256.c     ****     
  98:25LC256.c     **** 	/* Prepare the TX packet of size nBytes+3 
  99:25LC256.c     ****        [ Write Instruction - Address MSB - Address LSB - +++data+++ ]
 100:25LC256.c     ****     */
 101:25LC256.c     ****     
 102:25LC256.c     **** 	uint8_t dataTX[3+nBytes];
 307              		.loc 1 102 0
 308 001a E61C     		adds	r6, r4, #3
 309              	.LVL21:
 310 001c 04F10A03 		add	r3, r4, #10
 311 0020 23F00703 		bic	r3, r3, #7
 312 0024 ADEB030D 		sub	sp, sp, r3
 313              	.LVL22:
 103:25LC256.c     ****     dataTX[0] = SPI_EEPROM_WRITE;
 314              		.loc 1 103 0
 315 0028 0223     		movs	r3, #2
 316 002a 8DF80030 		strb	r3, [sp]
 104:25LC256.c     ****     dataTX[1] = (addr & 0xFF00) >> 8;
 317              		.loc 1 104 0
 318 002e 2B0A     		lsrs	r3, r5, #8
 319 0030 8DF80130 		strb	r3, [sp, #1]
 105:25LC256.c     ****     dataTX[2] = addr & 0x00FF;
 320              		.loc 1 105 0
 321 0034 8DF80250 		strb	r5, [sp, #2]
 106:25LC256.c     ****     /* Copy the input data in the memory */
 107:25LC256.c     **** 	memcpy(&dataTX[3], data, nBytes);
 322              		.loc 1 107 0
 323 0038 2246     		mov	r2, r4
 324 003a 4146     		mov	r1, r8
 325 003c 0DF10300 		add	r0, sp, #3
 326 0040 FFF7FEFF 		bl	memcpy
 327              	.LVL23:
 108:25LC256.c     **** 	
 109:25LC256.c     **** 	/* Nothing to RX: point to a dummy variable */
 110:25LC256.c     **** 	uint8_t temp = 0;
 328              		.loc 1 110 0
 329 0044 0023     		movs	r3, #0
 330 0046 07F10802 		add	r2, r7, #8
 331 004a 02F8013D 		strb	r3, [r2, #-1]!
 111:25LC256.c     **** 	
 112:25LC256.c     **** 	SPI_Interface_Multi_RW_EEPROM(dataTX, 3+nBytes, &temp, 0);
 332              		.loc 1 112 0
 333 004e F1B2     		uxtb	r1, r6
 334 0050 6846     		mov	r0, sp
 335 0052 FFF7FEFF 		bl	SPI_Interface_Multi_RW_EEPROM
 336              	.LVL24:
 113:25LC256.c     ****     
 114:25LC256.c     ****     CyGlobalIntEnable;
 337              		.loc 1 114 0
 338              		.syntax unified
 339              	@ 114 "25LC256.c" 1
ARM GAS  C:\Users\aless\AppData\Local\Temp\ccq8q7Xz.s 			page 9


 340 0056 62B6     		CPSIE   i
 341              	@ 0 "" 2
 115:25LC256.c     **** 	
 116:25LC256.c     **** }
 342              		.loc 1 116 0
 343              		.thumb
 344              		.syntax unified
 345 0058 0837     		adds	r7, r7, #8
 346              		.cfi_def_cfa_offset 24
 347 005a BD46     		mov	sp, r7
 348              		.cfi_def_cfa_register 13
 349              	.LVL25:
 350              		@ sp needed
 351 005c BDE8F081 		pop	{r4, r5, r6, r7, r8, pc}
 352              		.cfi_endproc
 353              	.LFE7:
 354              		.size	EEPROM_writePage, .-EEPROM_writePage
 355              		.section	.text.EEPROM_waitForWriteComplete,"ax",%progbits
 356              		.align	2
 357              		.global	EEPROM_waitForWriteComplete
 358              		.thumb
 359              		.thumb_func
 360              		.type	EEPROM_waitForWriteComplete, %function
 361              	EEPROM_waitForWriteComplete:
 362              	.LFB8:
 117:25LC256.c     **** 
 118:25LC256.c     **** void EEPROM_waitForWriteComplete() {
 363              		.loc 1 118 0
 364              		.cfi_startproc
 365              		@ args = 0, pretend = 0, frame = 0
 366              		@ frame_needed = 0, uses_anonymous_args = 0
 367 0000 08B5     		push	{r3, lr}
 368              		.cfi_def_cfa_offset 8
 369              		.cfi_offset 3, -8
 370              		.cfi_offset 14, -4
 371              	.L18:
 119:25LC256.c     ****     
 120:25LC256.c     ****     while( EEPROM_readStatus() & SPI_EEPROM_WRITE_IN_PROGRESS );
 372              		.loc 1 120 0 discriminator 1
 373 0002 FFF7FEFF 		bl	EEPROM_readStatus
 374              	.LVL26:
 375 0006 10F0010F 		tst	r0, #1
 376 000a FAD1     		bne	.L18
 121:25LC256.c     ****     
 122:25LC256.c     **** }
 377              		.loc 1 122 0
 378 000c 08BD     		pop	{r3, pc}
 379              		.cfi_endproc
 380              	.LFE8:
 381              		.size	EEPROM_waitForWriteComplete, .-EEPROM_waitForWriteComplete
 382              		.comm	eeprom_Status,1,1
 383 000e 00BF     		.text
 384              	.Letext0:
 385              		.file 2 "c:\\program files (x86)\\cypress\\psoc creator\\4.3\\psoc creator\\import\\gnu\\arm\\5.4.
 386              		.file 3 "c:\\program files (x86)\\cypress\\psoc creator\\4.3\\psoc creator\\import\\gnu\\arm\\5.4.
 387              		.file 4 "SPI_Interface.h"
 388              		.file 5 "Generated_Source\\PSoC5/CyLib.h"
ARM GAS  C:\Users\aless\AppData\Local\Temp\ccq8q7Xz.s 			page 10

