ARM GAS  C:\Users\aless\AppData\Local\Temp\ccCV2CMe.s 			page 1


   1              		.syntax unified
   2              		.cpu cortex-m3
   3              		.fpu softvfp
   4              		.eabi_attribute 20, 1
   5              		.eabi_attribute 21, 1
   6              		.eabi_attribute 23, 3
   7              		.eabi_attribute 24, 1
   8              		.eabi_attribute 25, 1
   9              		.eabi_attribute 26, 1
  10              		.eabi_attribute 30, 1
  11              		.eabi_attribute 34, 1
  12              		.eabi_attribute 18, 4
  13              		.thumb
  14              		.syntax unified
  15              		.file	"DMARoutines.c"
  16              		.text
  17              	.Ltext0:
  18              		.cfi_sections	.debug_frame
  19              		.section	.text.DMA_Config,"ax",%progbits
  20              		.align	2
  21              		.global	DMA_Config
  22              		.thumb
  23              		.thumb_func
  24              		.type	DMA_Config, %function
  25              	DMA_Config:
  26              	.LFB64:
  27              		.file 1 "DMARoutines.c"
   1:DMARoutines.c **** /* ========================================
   2:DMARoutines.c ****  *
   3:DMARoutines.c ****  * Copyright YOUR COMPANY, THE YEAR
   4:DMARoutines.c ****  * All Rights Reserved
   5:DMARoutines.c ****  * UNPUBLISHED, LICENSED SOFTWARE.
   6:DMARoutines.c ****  *
   7:DMARoutines.c ****  * CONFIDENTIAL AND PROPRIETARY INFORMATION
   8:DMARoutines.c ****  * WHICH IS THE PROPERTY OF your company.
   9:DMARoutines.c ****  *
  10:DMARoutines.c ****  * ========================================
  11:DMARoutines.c **** */
  12:DMARoutines.c **** 
  13:DMARoutines.c **** #include "DMARoutines.h"
  14:DMARoutines.c **** 
  15:DMARoutines.c **** // Used in InterruptRoutines.c
  16:DMARoutines.c **** uint8 DMA_Chan;
  17:DMARoutines.c **** 
  18:DMARoutines.c **** void DMA_Config(void){
  28              		.loc 1 18 0
  29              		.cfi_startproc
  30              		@ args = 0, pretend = 0, frame = 0
  31              		@ frame_needed = 0, uses_anonymous_args = 0
  32 0000 38B5     		push	{r3, r4, r5, lr}
  33              		.cfi_def_cfa_offset 16
  34              		.cfi_offset 3, -16
  35              		.cfi_offset 4, -12
  36              		.cfi_offset 5, -8
  37              		.cfi_offset 14, -4
  19:DMARoutines.c ****     
  20:DMARoutines.c ****     /* Variable declarations for DMA */
ARM GAS  C:\Users\aless\AppData\Local\Temp\ccCV2CMe.s 			page 2


  21:DMARoutines.c ****     /* Move these variable declarations to the top of the function */
  22:DMARoutines.c ****     uint8 DMA_Chan;
  23:DMARoutines.c ****     uint8 DMA_TD[1];
  24:DMARoutines.c **** 
  25:DMARoutines.c ****     /* DMA Configuration for DMA */
  26:DMARoutines.c ****     DMA_Chan = DMA_DmaInitialize(DMA_BYTES_PER_BURST, DMA_REQUEST_PER_BURST, 
  38              		.loc 1 26 0
  39 0002 41F6FF73 		movw	r3, #8191
  40 0006 4FF48042 		mov	r2, #16384
  41 000a 0121     		movs	r1, #1
  42 000c 0220     		movs	r0, #2
  43 000e FFF7FEFF 		bl	DMA_DmaInitialize
  44              	.LVL0:
  45 0012 0546     		mov	r5, r0
  46              	.LVL1:
  27:DMARoutines.c ****         HI16(DMA_SRC_BASE), HI16(DMA_DST_BASE));
  28:DMARoutines.c ****     DMA_TD[0] = CyDmaTdAllocate();
  47              		.loc 1 28 0
  48 0014 FFF7FEFF 		bl	CyDmaTdAllocate
  49              	.LVL2:
  50 0018 0446     		mov	r4, r0
  29:DMARoutines.c ****     CyDmaTdSetConfiguration(DMA_TD[0], 64, DMA_TD[0], DMA__TD_TERMOUT_EN | CY_DMA_TD_INC_DST_ADR);
  51              		.loc 1 29 0
  52 001a 0623     		movs	r3, #6
  53 001c 0246     		mov	r2, r0
  54 001e 4021     		movs	r1, #64
  55 0020 FFF7FEFF 		bl	CyDmaTdSetConfiguration
  56              	.LVL3:
  30:DMARoutines.c ****     CyDmaTdSetAddress(DMA_TD[0], LO16((uint32)ADC_DelSig_DEC_SAMP_PTR), LO16((uint32)ADCBuffer));
  57              		.loc 1 30 0
  58 0024 074A     		ldr	r2, .L3
  59 0026 92B2     		uxth	r2, r2
  60 0028 44F61061 		movw	r1, #19984
  61 002c 2046     		mov	r0, r4
  62 002e FFF7FEFF 		bl	CyDmaTdSetAddress
  63              	.LVL4:
  31:DMARoutines.c ****     CyDmaChSetInitialTd(DMA_Chan, DMA_TD[0]);
  64              		.loc 1 31 0
  65 0032 2146     		mov	r1, r4
  66 0034 2846     		mov	r0, r5
  67 0036 FFF7FEFF 		bl	CyDmaChSetInitialTd
  68              	.LVL5:
  32:DMARoutines.c ****     CyDmaChEnable(DMA_Chan, 1);
  69              		.loc 1 32 0
  70 003a 0121     		movs	r1, #1
  71 003c 2846     		mov	r0, r5
  72 003e FFF7FEFF 		bl	CyDmaChEnable
  73              	.LVL6:
  74 0042 38BD     		pop	{r3, r4, r5, pc}
  75              	.LVL7:
  76              	.L4:
  77              		.align	2
  78              	.L3:
  79 0044 00000000 		.word	ADCBuffer
  80              		.cfi_endproc
  81              	.LFE64:
  82              		.size	DMA_Config, .-DMA_Config
ARM GAS  C:\Users\aless\AppData\Local\Temp\ccCV2CMe.s 			page 3


  83              		.comm	DMA_Chan,1,1
  84              		.comm	ADCBuffer,64,4
  85              		.text
  86              	.Letext0:
  87              		.file 2 "c:\\program files (x86)\\cypress\\psoc creator\\4.3\\psoc creator\\import\\gnu\\arm\\5.4.
  88              		.file 3 "c:\\program files (x86)\\cypress\\psoc creator\\4.3\\psoc creator\\import\\gnu\\arm\\5.4.
  89              		.file 4 "Generated_Source\\PSoC5/cytypes.h"
  90              		.file 5 "Generated_Source\\PSoC5/core_cm3.h"
  91              		.file 6 "DMARoutines.h"
  92              		.file 7 "Generated_Source\\PSoC5/DMA_dma.h"
  93              		.file 8 "Generated_Source\\PSoC5/CYDMAC.H"