ARM GAS  C:\Users\aless\AppData\Local\Temp\ccJnh5He.s 			page 1


   1              		.syntax unified
   2              		.cpu cortex-m3
   3              		.fpu softvfp
   4              		.eabi_attribute 20, 1
   5              		.eabi_attribute 21, 1
   6              		.eabi_attribute 23, 3
   7              		.eabi_attribute 24, 1
   8              		.eabi_attribute 25, 1
   9              		.eabi_attribute 26, 1
  10              		.eabi_attribute 30, 1
  11              		.eabi_attribute 34, 1
  12              		.eabi_attribute 18, 4
  13              		.thumb
  14              		.syntax unified
  15              		.file	"InterruptRoutines.c"
  16              		.text
  17              	.Ltext0:
  18              		.cfi_sections	.debug_frame
  19              		.section	.text.Custom_ISR_ADC,"ax",%progbits
  20              		.align	2
  21              		.global	Custom_ISR_ADC
  22              		.thumb
  23              		.thumb_func
  24              		.type	Custom_ISR_ADC, %function
  25              	Custom_ISR_ADC:
  26              	.LFB64:
  27              		.file 1 "InterruptRoutines.c"
   1:InterruptRoutines.c **** /* ========================================
   2:InterruptRoutines.c ****  *
   3:InterruptRoutines.c ****  * Copyright YOUR COMPANY, THE YEAR
   4:InterruptRoutines.c ****  * All Rights Reserved
   5:InterruptRoutines.c ****  * UNPUBLISHED, LICENSED SOFTWARE.
   6:InterruptRoutines.c ****  *
   7:InterruptRoutines.c ****  * CONFIDENTIAL AND PROPRIETARY INFORMATION
   8:InterruptRoutines.c ****  * WHICH IS THE PROPERTY OF your company.
   9:InterruptRoutines.c ****  *
  10:InterruptRoutines.c ****  * ========================================
  11:InterruptRoutines.c **** */
  12:InterruptRoutines.c **** 
  13:InterruptRoutines.c **** /*
  14:InterruptRoutines.c **** *   \brief Source code for Interrupt Routines.
  15:InterruptRoutines.c **** */
  16:InterruptRoutines.c **** 
  17:InterruptRoutines.c **** // Include header
  18:InterruptRoutines.c **** #include "InterruptRoutines.h"
  19:InterruptRoutines.c **** 
  20:InterruptRoutines.c **** // Variables declaration
  21:InterruptRoutines.c **** int16 value_digit_analog;   //Value from the analog sensor
  22:InterruptRoutines.c **** 
  23:InterruptRoutines.c **** uint8_t ch_receveid;//Character to switch on/off the UART transmission
  24:InterruptRoutines.c **** uint8_t ControlFlag;//Control the on/off of the led
  25:InterruptRoutines.c **** 
  26:InterruptRoutines.c **** // Extern defined here
  27:InterruptRoutines.c **** uint8_t dataReady_FIFO = 0;
  28:InterruptRoutines.c **** uint8_t dataReady_STREAM = 0;
  29:InterruptRoutines.c **** uint8_t configSets[2] = {0, 5};
  30:InterruptRoutines.c **** uint8_t data_config[4];
ARM GAS  C:\Users\aless\AppData\Local\Temp\ccJnh5He.s 			page 2


  31:InterruptRoutines.c **** uint8_t cfg_reg;
  32:InterruptRoutines.c **** uint8_t cfg_reg_old;
  33:InterruptRoutines.c **** uint8_t update_cfg_reg;
  34:InterruptRoutines.c **** 
  35:InterruptRoutines.c **** 
  36:InterruptRoutines.c **** char bufferUART[200];
  37:InterruptRoutines.c **** 
  38:InterruptRoutines.c **** 
  39:InterruptRoutines.c **** uint8_t FlagFSR=0;
  40:InterruptRoutines.c **** uint8_t reg_value;
  41:InterruptRoutines.c **** 
  42:InterruptRoutines.c **** // From LIS3DH.c
  43:InterruptRoutines.c **** extern const uint8_t lis3dh_dataRate_t[4];
  44:InterruptRoutines.c **** extern const uint8_t lis3dh_dataRange_t[4];
  45:InterruptRoutines.c **** 
  46:InterruptRoutines.c **** // From main.c
  47:InterruptRoutines.c **** extern uint16_t indexSTREAM;
  48:InterruptRoutines.c **** extern uint16_t indexEEPROM;
  49:InterruptRoutines.c **** extern uint8_t memoryFull;
  50:InterruptRoutines.c **** extern uint8_t dataReady_DMA;
  51:InterruptRoutines.c **** extern const uint16_t Timer_Period[4];
  52:InterruptRoutines.c **** 
  53:InterruptRoutines.c **** CY_ISR(Custom_ISR_ADC) // ISR on EOC
  54:InterruptRoutines.c **** {
  28              		.loc 1 54 0
  29              		.cfi_startproc
  30              		@ args = 0, pretend = 0, frame = 0
  31              		@ frame_needed = 0, uses_anonymous_args = 0
  32              		@ link register save eliminated.
  55:InterruptRoutines.c ****     
  56:InterruptRoutines.c ****     
  57:InterruptRoutines.c ****     //Pin_DEBUG_Write(!Pin_DEBUG_Read());
  58:InterruptRoutines.c ****     
  59:InterruptRoutines.c ****     //Save the value of the selected analog sensor. We use this function because
  60:InterruptRoutines.c ****     //when the ADC is configured for 16-bit single ended mode, the ADC_Read32() function should be 
  61:InterruptRoutines.c ****     
  62:InterruptRoutines.c ****     //value_digit_analog = ADC_DelSig_GetResult16();
  63:InterruptRoutines.c ****     
  64:InterruptRoutines.c ****     //sprintf(bufferUART, "ADC val = %d\r\n", value_digit_analog);
  65:InterruptRoutines.c ****     /*
  66:InterruptRoutines.c ****     uint8_t UARTarray[4];
  67:InterruptRoutines.c ****     UARTarray[0] = 0xA0;
  68:InterruptRoutines.c ****     UARTarray[1] = (value_digit_analog & 0xFF);
  69:InterruptRoutines.c ****     UARTarray[2] = (value_digit_analog>>8);
  70:InterruptRoutines.c ****     UARTarray[3] = 0xC0;
  71:InterruptRoutines.c ****     UART_PutArray(UARTarray, 4);
  72:InterruptRoutines.c ****     */
  73:InterruptRoutines.c ****     /*
  74:InterruptRoutines.c ****     // Write bytes in buffer, in the position of the photoresistor
  75:InterruptRoutines.c ****     DataBuffer[3] = value_digit_ldr >> 8;
  76:InterruptRoutines.c ****     DataBuffer[4] = value_digit_ldr & 0xFF;
  77:InterruptRoutines.c ****     
  78:InterruptRoutines.c ****     //Switch between photoresistor and potentiometer
  79:InterruptRoutines.c ****     if (value_digit_ldr<THRESHOLD)
  80:InterruptRoutines.c ****     {
  81:InterruptRoutines.c ****         
  82:InterruptRoutines.c ****         AMux_Select(POTENTIOMETER);//Selcet the channel of the potentiometer
ARM GAS  C:\Users\aless\AppData\Local\Temp\ccJnh5He.s 			page 3


  83:InterruptRoutines.c ****         value_digit_pot=ADC_DelSig_Read32();//Save the value of the potentiometer
  84:InterruptRoutines.c ****         //Set the limitations
  85:InterruptRoutines.c ****         if (value_digit_pot < MIN)    value_digit_pot = MIN;
  86:InterruptRoutines.c ****         if (value_digit_pot > MAX)    value_digit_pot = MAX;
  87:InterruptRoutines.c **** 
  88:InterruptRoutines.c ****         // Write bytes in buffer
  89:InterruptRoutines.c ****         DataBuffer[1] = value_digit_pot >> 8;
  90:InterruptRoutines.c ****         DataBuffer[2] = value_digit_pot & 0xFF;
  91:InterruptRoutines.c ****         
  92:InterruptRoutines.c ****         PWM_WriteCompare(value_digit_pot);//Change the intensity of the LED light with the values f
  93:InterruptRoutines.c ****         AMux_Select(PHOTORESISTOR);//Select the channel of the photoresistor
  94:InterruptRoutines.c ****         ControlFlag=1;
  95:InterruptRoutines.c ****     }
  96:InterruptRoutines.c ****     //Switch off the LED
  97:InterruptRoutines.c ****     if (value_digit_ldr>THRESHOLD && ControlFlag==1) 
  98:InterruptRoutines.c ****     {
  99:InterruptRoutines.c ****         PWM_WriteCompare(LED_OFF);
 100:InterruptRoutines.c ****         ControlFlag=0;
 101:InterruptRoutines.c ****     }
 102:InterruptRoutines.c ****     */
 103:InterruptRoutines.c ****     // Enable to send data based on UART command
 104:InterruptRoutines.c ****     PacketReadyFlag=1;
  33              		.loc 1 104 0
  34 0000 0122     		movs	r2, #1
  35 0002 014B     		ldr	r3, .L2
  36 0004 1A70     		strb	r2, [r3]
  37 0006 7047     		bx	lr
  38              	.L3:
  39              		.align	2
  40              	.L2:
  41 0008 00000000 		.word	PacketReadyFlag
  42              		.cfi_endproc
  43              	.LFE64:
  44              		.size	Custom_ISR_ADC, .-Custom_ISR_ADC
  45              		.section	.text.Custom_ISR_OVRN,"ax",%progbits
  46              		.align	2
  47              		.global	Custom_ISR_OVRN
  48              		.thumb
  49              		.thumb_func
  50              		.type	Custom_ISR_OVRN, %function
  51              	Custom_ISR_OVRN:
  52              	.LFB66:
 105:InterruptRoutines.c ****     
 106:InterruptRoutines.c ****     
 107:InterruptRoutines.c **** }
 108:InterruptRoutines.c **** 
 109:InterruptRoutines.c **** /*----------------------------------------------*/
 110:InterruptRoutines.c **** /*                  ISR on RX                   */
 111:InterruptRoutines.c **** /*----------------------------------------------*/
 112:InterruptRoutines.c **** 
 113:InterruptRoutines.c **** uint8_t frequency;
 114:InterruptRoutines.c **** uint8_t Startstream;
 115:InterruptRoutines.c **** uint8_t Stopstream;
 116:InterruptRoutines.c **** uint16_t indexEEPROM;
 117:InterruptRoutines.c **** CY_ISR(Custom_ISR_RX)
 118:InterruptRoutines.c **** {
 119:InterruptRoutines.c ****     //Non-blocking call to get the latest data recieved  
ARM GAS  C:\Users\aless\AppData\Local\Temp\ccJnh5He.s 			page 4


 120:InterruptRoutines.c ****     ch_receveid = UART_GetChar();
 121:InterruptRoutines.c ****     sprintf(bufferUART, "ch_received = %c\r\n", ch_receveid);
 122:InterruptRoutines.c ****     UART_PutString(bufferUART);
 123:InterruptRoutines.c ****     sprintf(bufferUART, "configSets = %d - %d\r\n", configSets[0], configSets[1]);
 124:InterruptRoutines.c ****     UART_PutString(bufferUART);
 125:InterruptRoutines.c ****     
 126:InterruptRoutines.c ****     //Switch on/off the UART comunication
 127:InterruptRoutines.c ****     if(!configSets[0]){
 128:InterruptRoutines.c ****         switch(ch_receveid)
 129:InterruptRoutines.c ****         {
 130:InterruptRoutines.c ****             case 'B':
 131:InterruptRoutines.c ****             case 'b':
 132:InterruptRoutines.c ****                 PWM_BLINK_WritePeriod(199);
 133:InterruptRoutines.c ****                 PWM_BLINK_WriteCompare(100);
 134:InterruptRoutines.c ****                 //Pin_LED_Write(LED_ON);//Switch on the PSoC Blue LED --> the UART comunication is 
 135:InterruptRoutines.c ****                 //Timer_Start();//Sets the initVar variable, calls the Timer_Init() function, and t
 136:InterruptRoutines.c ****                 //AMux_Select(PHOTORESISTOR);//At the beginning set the channel of the photoresisto
 137:InterruptRoutines.c ****                 //PWM_WriteCompare(LED_OFF);//At the beginning the LED is off
 138:InterruptRoutines.c ****                 //ControlFlag=0;
 139:InterruptRoutines.c ****                 
 140:InterruptRoutines.c ****                 // Go back to state 0
 141:InterruptRoutines.c ****                 configSets[0]=0;
 142:InterruptRoutines.c ****                 
 143:InterruptRoutines.c ****                 // Begin acquisition
 144:InterruptRoutines.c ****                 data_config[3]=0x80;
 145:InterruptRoutines.c ****                 
 146:InterruptRoutines.c ****                 // Compress new settings (begin acquisition)
 147:InterruptRoutines.c ****                 cfg_reg = LIS3DH_zipConfig(data_config);
 148:InterruptRoutines.c ****                 
 149:InterruptRoutines.c ****                 // Save new settings in EEPROM
 150:InterruptRoutines.c ****                 /*EEPROM_writeByte(CFG_REG, cfg_reg);
 151:InterruptRoutines.c ****                 EEPROM_waitForWriteComplete();
 152:InterruptRoutines.c ****                 reg_value = EEPROM_readByte(CFG_REG);
 153:InterruptRoutines.c ****                 sprintf(bufferUART, "** UPDATED config_reg = 0x%02x\r\n", reg_value);
 154:InterruptRoutines.c ****                 UART_PutString(bufferUART);*/
 155:InterruptRoutines.c ****                 memoryFull = 0;
 156:InterruptRoutines.c ****                 indexEEPROM = DATA_START; // bring index back to start
 157:InterruptRoutines.c ****                 update_cfg_reg = 1;
 158:InterruptRoutines.c ****                 break;
 159:InterruptRoutines.c ****             case 'S':
 160:InterruptRoutines.c ****             case 's':
 161:InterruptRoutines.c ****                 PWM_BLINK_WritePeriod(0);
 162:InterruptRoutines.c ****                 PWM_BLINK_WriteCompare(0);
 163:InterruptRoutines.c ****                 //Pin_LED_Write(LED_OFF);//Switch off the PSoC Blue LED --> the UART comunication i
 164:InterruptRoutines.c ****                 //Timer_Stop();//Disables the Timer
 165:InterruptRoutines.c ****                 //PWM_WriteCompare(LED_OFF);//At the end the LED is off
 166:InterruptRoutines.c ****                 
 167:InterruptRoutines.c ****                 // Go back to state 0
 168:InterruptRoutines.c ****                 configSets[0] = 0;
 169:InterruptRoutines.c ****                 
 170:InterruptRoutines.c ****                 // Stop acquisition
 171:InterruptRoutines.c ****                 data_config[3]=0x00; // bypass mode
 172:InterruptRoutines.c ****                 //LIS3DH_setConfig(data_config); // set user-dependent settings
 173:InterruptRoutines.c ****                 
 174:InterruptRoutines.c ****                 // Compress new settings (stop acquisition)
 175:InterruptRoutines.c ****                 cfg_reg = LIS3DH_zipConfig(data_config);
 176:InterruptRoutines.c ****                 
ARM GAS  C:\Users\aless\AppData\Local\Temp\ccJnh5He.s 			page 5


 177:InterruptRoutines.c ****                 // Save new settings in EEPROM
 178:InterruptRoutines.c ****                 /**EEPROM_writeByte(CFG_REG, cfg_reg);
 179:InterruptRoutines.c ****                 EEPROM_waitForWriteComplete();
 180:InterruptRoutines.c ****                 reg_value = EEPROM_readByte(CFG_REG);
 181:InterruptRoutines.c ****                 sprintf(bufferUART, "** UPDATED config_reg = 0x%02x\r\n", reg_value);
 182:InterruptRoutines.c ****                 UART_PutString(bufferUART);*/
 183:InterruptRoutines.c ****                 //reg_value = EEPROM_readByte(CFG_REG);
 184:InterruptRoutines.c ****                 //sprintf(bufferUART, "** UPDATED config_reg = 0x%02x\r\n", reg_value);
 185:InterruptRoutines.c ****                 //UART_PutString(bufferUART);
 186:InterruptRoutines.c ****                 
 187:InterruptRoutines.c ****                 update_cfg_reg = 1;
 188:InterruptRoutines.c ****                 
 189:InterruptRoutines.c ****                 // Show the main menu
 190:InterruptRoutines.c ****                 ShowMenu();
 191:InterruptRoutines.c ****                 break;
 192:InterruptRoutines.c ****             case 'F':
 193:InterruptRoutines.c ****             case 'f':
 194:InterruptRoutines.c ****                 Timer_STREAM_Stop();
 195:InterruptRoutines.c ****                 UART_PutString("|Character | Full Scale Range         |\n| 1        | +- 2g        
 196:InterruptRoutines.c ****                 configSets[0] = ch_receveid;
 197:InterruptRoutines.c ****                 
 198:InterruptRoutines.c ****                 break;
 199:InterruptRoutines.c ****             case 'P':
 200:InterruptRoutines.c ****             case 'p':
 201:InterruptRoutines.c ****                 Timer_STREAM_Stop();
 202:InterruptRoutines.c ****                 UART_PutString("|Character | Sampling Frequency       |\n| 1        |  1Hz         
 203:InterruptRoutines.c ****                 configSets[0] = ch_receveid;
 204:InterruptRoutines.c ****                
 205:InterruptRoutines.c ****                 break;
 206:InterruptRoutines.c ****             case 'L':
 207:InterruptRoutines.c ****             case 'l':
 208:InterruptRoutines.c ****                 Timer_STREAM_Stop();
 209:InterruptRoutines.c ****                 UART_PutString("|Character | Sensor                   |\n| 0        | Store luminos
 210:InterruptRoutines.c ****                 configSets[0] = ch_receveid;
 211:InterruptRoutines.c ****                 break;
 212:InterruptRoutines.c ****             case 'V':
 213:InterruptRoutines.c ****             case 'v':
 214:InterruptRoutines.c ****                 PWM_BLINK_WritePeriod(0);
 215:InterruptRoutines.c ****                 PWM_BLINK_WriteCompare(0);
 216:InterruptRoutines.c ****                 
 217:InterruptRoutines.c ****                 data_config[3]=0x00;
 218:InterruptRoutines.c ****                 LIS3DH_setConfig(data_config);// set user-dependent settings
 219:InterruptRoutines.c ****                 configSets[0] = ch_receveid;
 220:InterruptRoutines.c ****                 //configSets[1] = 5;
 221:InterruptRoutines.c ****                 /*
 222:InterruptRoutines.c ****                 IndexEEPROMStart = (uint8_t)DATA_START;
 223:InterruptRoutines.c ****                 EEPROM_writePage(0x0000, &IndexEEPROMStart, 2);
 224:InterruptRoutines.c ****                 EEPROM_waitForWriteComplete();
 225:InterruptRoutines.c ****                 */
 226:InterruptRoutines.c ****                 sprintf(bufferUART, "config_reg = 0x%02x\r\n", cfg_reg_old);
 227:InterruptRoutines.c ****                 UART_PutString(bufferUART);
 228:InterruptRoutines.c ****                 
 229:InterruptRoutines.c ****                 cfg_reg = LIS3DH_zipConfig(data_config);
 230:InterruptRoutines.c ****                 
 231:InterruptRoutines.c ****                 sprintf(bufferUART, "config_reg = 0x%02x\r\n", cfg_reg);
 232:InterruptRoutines.c ****                 UART_PutString(bufferUART);
 233:InterruptRoutines.c ****                 
ARM GAS  C:\Users\aless\AppData\Local\Temp\ccJnh5He.s 			page 6


 234:InterruptRoutines.c ****                 Pin_LED_ext_Write(LED_ON);
 235:InterruptRoutines.c ****                 
 236:InterruptRoutines.c ****                 /*
 237:InterruptRoutines.c ****                 sprintf(bufferUART, "DATACONFIG = 0x%02x\r\n", data_config[0]);
 238:InterruptRoutines.c ****                 UART_PutString(bufferUART);
 239:InterruptRoutines.c ****                 frequency=((data_config[0]>>4)&0x0F)-1;
 240:InterruptRoutines.c ****                 sprintf(bufferUART, "DATACONFIG = 0x%02x\r\n", frequency);
 241:InterruptRoutines.c ****                 UART_PutString(bufferUART);
 242:InterruptRoutines.c ****                 */
 243:InterruptRoutines.c ****                 //Timer_STREAM_WritePeriod(Timer_Period[frequency]); //cfg_reg&MASK_FS
 244:InterruptRoutines.c ****                 //Timer_STREAM_Start();
 245:InterruptRoutines.c ****                 Startstream=1;
 246:InterruptRoutines.c ****                 break;
 247:InterruptRoutines.c ****             default:
 248:InterruptRoutines.c ****                 break;
 249:InterruptRoutines.c ****         }
 250:InterruptRoutines.c ****     }
 251:InterruptRoutines.c ****     else if((configSets[0]=='V')||(configSets[0]=='v')){
 252:InterruptRoutines.c ****         switch(ch_receveid){
 253:InterruptRoutines.c ****             case 'U':
 254:InterruptRoutines.c ****             case 'u':
 255:InterruptRoutines.c ****             case '?':
 256:InterruptRoutines.c ****                 Timer_STREAM_Stop();
 257:InterruptRoutines.c ****                 Stopstream=1;
 258:InterruptRoutines.c ****                 Pin_LED_ext_Write(LED_OFF);
 259:InterruptRoutines.c ****                 ShowMenu();
 260:InterruptRoutines.c ****                 break;
 261:InterruptRoutines.c ****                 }
 262:InterruptRoutines.c ****     }
 263:InterruptRoutines.c ****     else{
 264:InterruptRoutines.c ****         switch(configSets[0]) {
 265:InterruptRoutines.c ****             case 'f':
 266:InterruptRoutines.c ****             case 'F':
 267:InterruptRoutines.c ****                 switch(ch_receveid) {
 268:InterruptRoutines.c ****                     case '1':
 269:InterruptRoutines.c ****                         data_config[1]=lis3dh_dataRange_t[0] | CTRL_REG4_NORM;
 270:InterruptRoutines.c ****                         configSets[1]=1;
 271:InterruptRoutines.c ****                         break;
 272:InterruptRoutines.c ****                     case '2':
 273:InterruptRoutines.c ****                         data_config[1]=lis3dh_dataRange_t[1] | CTRL_REG4_NORM;
 274:InterruptRoutines.c ****                         configSets[1]=2;
 275:InterruptRoutines.c ****                         break;
 276:InterruptRoutines.c ****                     case '3':
 277:InterruptRoutines.c ****                         data_config[1]=lis3dh_dataRange_t[2] | CTRL_REG4_NORM;
 278:InterruptRoutines.c ****                         configSets[1]=3;
 279:InterruptRoutines.c ****                         
 280:InterruptRoutines.c ****                         break;
 281:InterruptRoutines.c ****                     case '4':
 282:InterruptRoutines.c ****                         data_config[1]=lis3dh_dataRange_t[3] | CTRL_REG4_NORM;
 283:InterruptRoutines.c ****                         configSets[1]=4;
 284:InterruptRoutines.c ****                         break;
 285:InterruptRoutines.c ****                     case '?':
 286:InterruptRoutines.c ****                         ShowMenu();
 287:InterruptRoutines.c ****                         break;
 288:InterruptRoutines.c ****                     default:
 289:InterruptRoutines.c ****                         configSets[1]=5;
 290:InterruptRoutines.c ****                         
ARM GAS  C:\Users\aless\AppData\Local\Temp\ccJnh5He.s 			page 7


 291:InterruptRoutines.c ****                         break;
 292:InterruptRoutines.c ****                 }
 293:InterruptRoutines.c ****                 break;
 294:InterruptRoutines.c ****                 
 295:InterruptRoutines.c ****             case 'p':
 296:InterruptRoutines.c ****             case 'P':
 297:InterruptRoutines.c ****                 switch(ch_receveid) {
 298:InterruptRoutines.c ****                     case '1':
 299:InterruptRoutines.c ****                         data_config[0]=lis3dh_dataRate_t[0]| CTRL_REG1_NORM;
 300:InterruptRoutines.c ****                         sprintf(bufferUART, "dataconfig = 0x%02x\r\n", data_config[0]);
 301:InterruptRoutines.c ****                         UART_PutString(bufferUART);
 302:InterruptRoutines.c ****                         configSets[1]=1;
 303:InterruptRoutines.c ****                         break;
 304:InterruptRoutines.c ****                     case '2':
 305:InterruptRoutines.c ****                         data_config[0]=lis3dh_dataRate_t[1]| CTRL_REG1_NORM;
 306:InterruptRoutines.c ****                         configSets[1]=2;
 307:InterruptRoutines.c ****                         sprintf(bufferUART, "dataconfig = 0x%02x\r\n", data_config[0]);
 308:InterruptRoutines.c ****                         UART_PutString(bufferUART);
 309:InterruptRoutines.c ****                         break;
 310:InterruptRoutines.c ****                     case '3':
 311:InterruptRoutines.c ****                         data_config[0]=lis3dh_dataRate_t[2]| CTRL_REG1_NORM;
 312:InterruptRoutines.c ****                         configSets[1]=3;
 313:InterruptRoutines.c ****                         sprintf(bufferUART, "dataconfig = 0x%02x\r\n", data_config[0]);
 314:InterruptRoutines.c ****                         UART_PutString(bufferUART);
 315:InterruptRoutines.c ****                         break;
 316:InterruptRoutines.c ****                     case '4':
 317:InterruptRoutines.c ****                         data_config[0]=lis3dh_dataRate_t[3]| CTRL_REG1_NORM;
 318:InterruptRoutines.c ****                         configSets[1]=4;
 319:InterruptRoutines.c ****                         sprintf(bufferUART, "dataconfig = 0x%02x\r\n", data_config[0]);
 320:InterruptRoutines.c ****                         UART_PutString(bufferUART);
 321:InterruptRoutines.c ****                         break;
 322:InterruptRoutines.c ****                     case '?':
 323:InterruptRoutines.c ****                         ShowMenu();
 324:InterruptRoutines.c ****                         break;
 325:InterruptRoutines.c ****                     default:
 326:InterruptRoutines.c ****                         configSets[1]=5;
 327:InterruptRoutines.c ****                         break;
 328:InterruptRoutines.c ****                 }
 329:InterruptRoutines.c ****                 break;
 330:InterruptRoutines.c ****                 
 331:InterruptRoutines.c ****             case 'l':
 332:InterruptRoutines.c ****             case 'L':
 333:InterruptRoutines.c ****                 switch(ch_receveid) {
 334:InterruptRoutines.c ****                     case '0':
 335:InterruptRoutines.c ****                         AMux_Select(PHOTORESISTOR);
 336:InterruptRoutines.c ****                         configSets[1] = 0;
 337:InterruptRoutines.c ****                         UART_PutString("--> Photoresistor\n\r");
 338:InterruptRoutines.c ****                         data_config[2]=0;
 339:InterruptRoutines.c ****                         break;
 340:InterruptRoutines.c ****                     case '1':
 341:InterruptRoutines.c ****                         AMux_Select(POTENTIOMETER);
 342:InterruptRoutines.c ****                         configSets[1] = 1;
 343:InterruptRoutines.c ****                         UART_PutString("--> Potentiometer\n\r");
 344:InterruptRoutines.c ****                         data_config[2]=1;
 345:InterruptRoutines.c ****                         break;
 346:InterruptRoutines.c ****                     case '?':
 347:InterruptRoutines.c ****                         ShowMenu();
ARM GAS  C:\Users\aless\AppData\Local\Temp\ccJnh5He.s 			page 8


 348:InterruptRoutines.c ****                         break;
 349:InterruptRoutines.c ****                     default:
 350:InterruptRoutines.c ****                         configSets[1]=5;
 351:InterruptRoutines.c ****                         break;
 352:InterruptRoutines.c ****                 }
 353:InterruptRoutines.c ****                 break;
 354:InterruptRoutines.c ****             
 355:InterruptRoutines.c ****             default:
 356:InterruptRoutines.c ****                 break;
 357:InterruptRoutines.c ****         }   
 358:InterruptRoutines.c ****     }
 359:InterruptRoutines.c **** }
 360:InterruptRoutines.c **** 
 361:InterruptRoutines.c **** 
 362:InterruptRoutines.c **** /*----------------------------------------------*/
 363:InterruptRoutines.c **** /*                 ISR on OVRN                  */
 364:InterruptRoutines.c **** /*----------------------------------------------*/
 365:InterruptRoutines.c **** 
 366:InterruptRoutines.c **** CY_ISR(Custom_ISR_OVRN) {
  53              		.loc 1 366 0
  54              		.cfi_startproc
  55              		@ args = 0, pretend = 0, frame = 0
  56              		@ frame_needed = 0, uses_anonymous_args = 0
  57              		@ link register save eliminated.
 367:InterruptRoutines.c ****     
 368:InterruptRoutines.c ****     //UART_PutString("INTERRUPT OVRN\r\n");
 369:InterruptRoutines.c ****     // Raise flag
 370:InterruptRoutines.c ****     dataReady_FIFO = 1;
  58              		.loc 1 370 0
  59 0000 0122     		movs	r2, #1
  60 0002 014B     		ldr	r3, .L5
  61 0004 1A70     		strb	r2, [r3]
  62 0006 7047     		bx	lr
  63              	.L6:
  64              		.align	2
  65              	.L5:
  66 0008 00000000 		.word	.LANCHOR0
  67              		.cfi_endproc
  68              	.LFE66:
  69              		.size	Custom_ISR_OVRN, .-Custom_ISR_OVRN
  70              		.section	.text.Custom_ISR_STREAM,"ax",%progbits
  71              		.align	2
  72              		.global	Custom_ISR_STREAM
  73              		.thumb
  74              		.thumb_func
  75              		.type	Custom_ISR_STREAM, %function
  76              	Custom_ISR_STREAM:
  77              	.LFB67:
 371:InterruptRoutines.c ****     //UART_PutString("LIS3DH\r\n");
 372:InterruptRoutines.c **** }
 373:InterruptRoutines.c **** 
 374:InterruptRoutines.c **** 
 375:InterruptRoutines.c **** /*----------------------------------------------*/
 376:InterruptRoutines.c **** /*               ISR for STREAM                 */
 377:InterruptRoutines.c **** /*----------------------------------------------*/
 378:InterruptRoutines.c **** 
 379:InterruptRoutines.c **** CY_ISR(Custom_ISR_STREAM) {
ARM GAS  C:\Users\aless\AppData\Local\Temp\ccJnh5He.s 			page 9


  78              		.loc 1 379 0
  79              		.cfi_startproc
  80              		@ args = 0, pretend = 0, frame = 0
  81              		@ frame_needed = 0, uses_anonymous_args = 0
  82              		@ link register save eliminated.
 380:InterruptRoutines.c ****     //UART_PutString("INTERRUPT STREAM\r\n");
 381:InterruptRoutines.c ****     // Raise flag
 382:InterruptRoutines.c ****     dataReady_STREAM = 1;
  83              		.loc 1 382 0
  84 0000 0122     		movs	r2, #1
  85 0002 014B     		ldr	r3, .L8
  86 0004 5A70     		strb	r2, [r3, #1]
  87 0006 7047     		bx	lr
  88              	.L9:
  89              		.align	2
  90              	.L8:
  91 0008 00000000 		.word	.LANCHOR0
  92              		.cfi_endproc
  93              	.LFE67:
  94              		.size	Custom_ISR_STREAM, .-Custom_ISR_STREAM
  95              		.section	.text.ShowMenu,"ax",%progbits
  96              		.align	2
  97              		.global	ShowMenu
  98              		.thumb
  99              		.thumb_func
 100              		.type	ShowMenu, %function
 101              	ShowMenu:
 102              	.LFB68:
 383:InterruptRoutines.c **** }
 384:InterruptRoutines.c **** 
 385:InterruptRoutines.c **** void ShowMenu(void) {
 103              		.loc 1 385 0
 104              		.cfi_startproc
 105              		@ args = 0, pretend = 0, frame = 0
 106              		@ frame_needed = 0, uses_anonymous_args = 0
 107 0000 08B5     		push	{r3, lr}
 108              		.cfi_def_cfa_offset 8
 109              		.cfi_offset 3, -8
 110              		.cfi_offset 14, -4
 386:InterruptRoutines.c ****     configSets[0] = 0;
 111              		.loc 1 386 0
 112 0002 074B     		ldr	r3, .L12
 113 0004 0022     		movs	r2, #0
 114 0006 1A70     		strb	r2, [r3]
 387:InterruptRoutines.c ****     configSets[1] = 5;
 115              		.loc 1 387 0
 116 0008 0522     		movs	r2, #5
 117 000a 5A70     		strb	r2, [r3, #1]
 388:InterruptRoutines.c ****     UART_PutString("\n\r                *|WELCOME IN THE FINAL PROJECT|*                \r\nPlease 
 118              		.loc 1 388 0
 119 000c 0548     		ldr	r0, .L12+4
 120 000e FFF7FEFF 		bl	UART_PutString
 121              	.LVL0:
 389:InterruptRoutines.c ****     UART_PutString("    Legend:\r\n");
 122              		.loc 1 389 0
 123 0012 0548     		ldr	r0, .L12+8
 124 0014 FFF7FEFF 		bl	UART_PutString
ARM GAS  C:\Users\aless\AppData\Local\Temp\ccJnh5He.s 			page 10


 125              	.LVL1:
 390:InterruptRoutines.c ****     UART_PutString("        B/b-->Start Data Acquisition\r\n        F/f-->Select Full Scale Range\r
 126              		.loc 1 390 0
 127 0018 0448     		ldr	r0, .L12+12
 128 001a FFF7FEFF 		bl	UART_PutString
 129              	.LVL2:
 130 001e 08BD     		pop	{r3, pc}
 131              	.L13:
 132              		.align	2
 133              	.L12:
 134 0020 00000000 		.word	.LANCHOR1
 135 0024 00000000 		.word	.LC0
 136 0028 6C000000 		.word	.LC1
 137 002c 7C000000 		.word	.LC2
 138              		.cfi_endproc
 139              	.LFE68:
 140              		.size	ShowMenu, .-ShowMenu
 141              		.section	.text.Custom_ISR_RX,"ax",%progbits
 142              		.align	2
 143              		.global	Custom_ISR_RX
 144              		.thumb
 145              		.thumb_func
 146              		.type	Custom_ISR_RX, %function
 147              	Custom_ISR_RX:
 148              	.LFB65:
 118:InterruptRoutines.c ****     //Non-blocking call to get the latest data recieved  
 149              		.loc 1 118 0
 150              		.cfi_startproc
 151              		@ args = 0, pretend = 0, frame = 0
 152              		@ frame_needed = 0, uses_anonymous_args = 0
 153 0000 70B5     		push	{r4, r5, r6, lr}
 154              		.cfi_def_cfa_offset 16
 155              		.cfi_offset 4, -16
 156              		.cfi_offset 5, -12
 157              		.cfi_offset 6, -8
 158              		.cfi_offset 14, -4
 120:InterruptRoutines.c ****     sprintf(bufferUART, "ch_received = %c\r\n", ch_receveid);
 159              		.loc 1 120 0
 160 0002 FFF7FEFF 		bl	UART_GetChar
 161              	.LVL3:
 162 0006 0246     		mov	r2, r0
 163 0008 974B     		ldr	r3, .L51
 164 000a 1870     		strb	r0, [r3]
 121:InterruptRoutines.c ****     UART_PutString(bufferUART);
 165              		.loc 1 121 0
 166 000c 974C     		ldr	r4, .L51+4
 167 000e 9849     		ldr	r1, .L51+8
 168 0010 2046     		mov	r0, r4
 169 0012 FFF7FEFF 		bl	sprintf
 170              	.LVL4:
 122:InterruptRoutines.c ****     sprintf(bufferUART, "configSets = %d - %d\r\n", configSets[0], configSets[1]);
 171              		.loc 1 122 0
 172 0016 2046     		mov	r0, r4
 173 0018 FFF7FEFF 		bl	UART_PutString
 174              	.LVL5:
 123:InterruptRoutines.c ****     UART_PutString(bufferUART);
 175              		.loc 1 123 0
ARM GAS  C:\Users\aless\AppData\Local\Temp\ccJnh5He.s 			page 11


 176 001c 954D     		ldr	r5, .L51+12
 177 001e 6B78     		ldrb	r3, [r5, #1]	@ zero_extendqisi2
 178 0020 2A78     		ldrb	r2, [r5]	@ zero_extendqisi2
 179 0022 9549     		ldr	r1, .L51+16
 180 0024 2046     		mov	r0, r4
 181 0026 FFF7FEFF 		bl	sprintf
 182              	.LVL6:
 124:InterruptRoutines.c ****     
 183              		.loc 1 124 0
 184 002a 2046     		mov	r0, r4
 185 002c FFF7FEFF 		bl	UART_PutString
 186              	.LVL7:
 127:InterruptRoutines.c ****         switch(ch_receveid)
 187              		.loc 1 127 0
 188 0030 2B78     		ldrb	r3, [r5]	@ zero_extendqisi2
 189 0032 002B     		cmp	r3, #0
 190 0034 40F0B880 		bne	.L15
 128:InterruptRoutines.c ****         {
 191              		.loc 1 128 0
 192 0038 8B4B     		ldr	r3, .L51
 193 003a 1B78     		ldrb	r3, [r3]	@ zero_extendqisi2
 194 003c 423B     		subs	r3, r3, #66
 195 003e 342B     		cmp	r3, #52
 196 0040 00F2D981 		bhi	.L14
 197 0044 DFE813F0 		tbh	[pc, r3, lsl #1]
 198              	.L18:
 199 0048 3500     		.2byte	(.L17-.L18)/2
 200 004a D701     		.2byte	(.L14-.L18)/2
 201 004c D701     		.2byte	(.L14-.L18)/2
 202 004e D701     		.2byte	(.L14-.L18)/2
 203 0050 6300     		.2byte	(.L19-.L18)/2
 204 0052 D701     		.2byte	(.L14-.L18)/2
 205 0054 D701     		.2byte	(.L14-.L18)/2
 206 0056 D701     		.2byte	(.L14-.L18)/2
 207 0058 D701     		.2byte	(.L14-.L18)/2
 208 005a D701     		.2byte	(.L14-.L18)/2
 209 005c 7700     		.2byte	(.L20-.L18)/2
 210 005e D701     		.2byte	(.L14-.L18)/2
 211 0060 D701     		.2byte	(.L14-.L18)/2
 212 0062 D701     		.2byte	(.L14-.L18)/2
 213 0064 6D00     		.2byte	(.L21-.L18)/2
 214 0066 D701     		.2byte	(.L14-.L18)/2
 215 0068 D701     		.2byte	(.L14-.L18)/2
 216 006a 4E00     		.2byte	(.L22-.L18)/2
 217 006c D701     		.2byte	(.L14-.L18)/2
 218 006e D701     		.2byte	(.L14-.L18)/2
 219 0070 8100     		.2byte	(.L23-.L18)/2
 220 0072 D701     		.2byte	(.L14-.L18)/2
 221 0074 D701     		.2byte	(.L14-.L18)/2
 222 0076 D701     		.2byte	(.L14-.L18)/2
 223 0078 D701     		.2byte	(.L14-.L18)/2
 224 007a D701     		.2byte	(.L14-.L18)/2
 225 007c D701     		.2byte	(.L14-.L18)/2
 226 007e D701     		.2byte	(.L14-.L18)/2
 227 0080 D701     		.2byte	(.L14-.L18)/2
 228 0082 D701     		.2byte	(.L14-.L18)/2
 229 0084 D701     		.2byte	(.L14-.L18)/2
ARM GAS  C:\Users\aless\AppData\Local\Temp\ccJnh5He.s 			page 12


 230 0086 D701     		.2byte	(.L14-.L18)/2
 231 0088 3500     		.2byte	(.L17-.L18)/2
 232 008a D701     		.2byte	(.L14-.L18)/2
 233 008c D701     		.2byte	(.L14-.L18)/2
 234 008e D701     		.2byte	(.L14-.L18)/2
 235 0090 6300     		.2byte	(.L19-.L18)/2
 236 0092 D701     		.2byte	(.L14-.L18)/2
 237 0094 D701     		.2byte	(.L14-.L18)/2
 238 0096 D701     		.2byte	(.L14-.L18)/2
 239 0098 D701     		.2byte	(.L14-.L18)/2
 240 009a D701     		.2byte	(.L14-.L18)/2
 241 009c 7700     		.2byte	(.L20-.L18)/2
 242 009e D701     		.2byte	(.L14-.L18)/2
 243 00a0 D701     		.2byte	(.L14-.L18)/2
 244 00a2 D701     		.2byte	(.L14-.L18)/2
 245 00a4 6D00     		.2byte	(.L21-.L18)/2
 246 00a6 D701     		.2byte	(.L14-.L18)/2
 247 00a8 D701     		.2byte	(.L14-.L18)/2
 248 00aa 4E00     		.2byte	(.L22-.L18)/2
 249 00ac D701     		.2byte	(.L14-.L18)/2
 250 00ae D701     		.2byte	(.L14-.L18)/2
 251 00b0 8100     		.2byte	(.L23-.L18)/2
 252              		.p2align 1
 253              	.L17:
 132:InterruptRoutines.c ****                 PWM_BLINK_WriteCompare(100);
 254              		.loc 1 132 0
 255 00b2 C720     		movs	r0, #199
 256 00b4 FFF7FEFF 		bl	PWM_BLINK_WritePeriod
 257              	.LVL8:
 133:InterruptRoutines.c ****                 //Pin_LED_Write(LED_ON);//Switch on the PSoC Blue LED --> the UART comunication is 
 258              		.loc 1 133 0
 259 00b8 6420     		movs	r0, #100
 260 00ba FFF7FEFF 		bl	PWM_BLINK_WriteCompare
 261              	.LVL9:
 141:InterruptRoutines.c ****                 
 262              		.loc 1 141 0
 263 00be 0024     		movs	r4, #0
 264 00c0 6C4B     		ldr	r3, .L51+12
 265 00c2 1C70     		strb	r4, [r3]
 144:InterruptRoutines.c ****                 
 266              		.loc 1 144 0
 267 00c4 6D48     		ldr	r0, .L51+20
 268 00c6 8023     		movs	r3, #128
 269 00c8 C370     		strb	r3, [r0, #3]
 147:InterruptRoutines.c ****                 
 270              		.loc 1 147 0
 271 00ca FFF7FEFF 		bl	LIS3DH_zipConfig
 272              	.LVL10:
 273 00ce 6C4B     		ldr	r3, .L51+24
 274 00d0 1870     		strb	r0, [r3]
 155:InterruptRoutines.c ****                 indexEEPROM = DATA_START; // bring index back to start
 275              		.loc 1 155 0
 276 00d2 6C4B     		ldr	r3, .L51+28
 277 00d4 1C70     		strb	r4, [r3]
 156:InterruptRoutines.c ****                 update_cfg_reg = 1;
 278              		.loc 1 156 0
 279 00d6 0722     		movs	r2, #7
ARM GAS  C:\Users\aless\AppData\Local\Temp\ccJnh5He.s 			page 13


 280 00d8 6B4B     		ldr	r3, .L51+32
 281 00da 1A80     		strh	r2, [r3]	@ movhi
 157:InterruptRoutines.c ****                 break;
 282              		.loc 1 157 0
 283 00dc 0122     		movs	r2, #1
 284 00de 6B4B     		ldr	r3, .L51+36
 285 00e0 1A70     		strb	r2, [r3]
 158:InterruptRoutines.c ****             case 'S':
 286              		.loc 1 158 0
 287 00e2 70BD     		pop	{r4, r5, r6, pc}
 288              	.L22:
 161:InterruptRoutines.c ****                 PWM_BLINK_WriteCompare(0);
 289              		.loc 1 161 0
 290 00e4 0020     		movs	r0, #0
 291 00e6 FFF7FEFF 		bl	PWM_BLINK_WritePeriod
 292              	.LVL11:
 162:InterruptRoutines.c ****                 //Pin_LED_Write(LED_OFF);//Switch off the PSoC Blue LED --> the UART comunication i
 293              		.loc 1 162 0
 294 00ea 0020     		movs	r0, #0
 295 00ec FFF7FEFF 		bl	PWM_BLINK_WriteCompare
 296              	.LVL12:
 168:InterruptRoutines.c ****                 
 297              		.loc 1 168 0
 298 00f0 0023     		movs	r3, #0
 299 00f2 604A     		ldr	r2, .L51+12
 300 00f4 1370     		strb	r3, [r2]
 171:InterruptRoutines.c ****                 //LIS3DH_setConfig(data_config); // set user-dependent settings
 301              		.loc 1 171 0
 302 00f6 6148     		ldr	r0, .L51+20
 303 00f8 C370     		strb	r3, [r0, #3]
 175:InterruptRoutines.c ****                 
 304              		.loc 1 175 0
 305 00fa FFF7FEFF 		bl	LIS3DH_zipConfig
 306              	.LVL13:
 307 00fe 604B     		ldr	r3, .L51+24
 308 0100 1870     		strb	r0, [r3]
 187:InterruptRoutines.c ****                 
 309              		.loc 1 187 0
 310 0102 0122     		movs	r2, #1
 311 0104 614B     		ldr	r3, .L51+36
 312 0106 1A70     		strb	r2, [r3]
 190:InterruptRoutines.c ****                 break;
 313              		.loc 1 190 0
 314 0108 FFF7FEFF 		bl	ShowMenu
 315              	.LVL14:
 191:InterruptRoutines.c ****             case 'F':
 316              		.loc 1 191 0
 317 010c 70BD     		pop	{r4, r5, r6, pc}
 318              	.L19:
 194:InterruptRoutines.c ****                 UART_PutString("|Character | Full Scale Range         |\n| 1        | +- 2g        
 319              		.loc 1 194 0
 320 010e FFF7FEFF 		bl	Timer_STREAM_Stop
 321              	.LVL15:
 195:InterruptRoutines.c ****                 configSets[0] = ch_receveid;
 322              		.loc 1 195 0
 323 0112 5F48     		ldr	r0, .L51+40
 324 0114 FFF7FEFF 		bl	UART_PutString
ARM GAS  C:\Users\aless\AppData\Local\Temp\ccJnh5He.s 			page 14


 325              	.LVL16:
 196:InterruptRoutines.c ****                 
 326              		.loc 1 196 0
 327 0118 534B     		ldr	r3, .L51
 328 011a 1A78     		ldrb	r2, [r3]	@ zero_extendqisi2
 329 011c 554B     		ldr	r3, .L51+12
 330 011e 1A70     		strb	r2, [r3]
 198:InterruptRoutines.c ****             case 'P':
 331              		.loc 1 198 0
 332 0120 70BD     		pop	{r4, r5, r6, pc}
 333              	.L21:
 201:InterruptRoutines.c ****                 UART_PutString("|Character | Sampling Frequency       |\n| 1        |  1Hz         
 334              		.loc 1 201 0
 335 0122 FFF7FEFF 		bl	Timer_STREAM_Stop
 336              	.LVL17:
 202:InterruptRoutines.c ****                 configSets[0] = ch_receveid;
 337              		.loc 1 202 0
 338 0126 5B48     		ldr	r0, .L51+44
 339 0128 FFF7FEFF 		bl	UART_PutString
 340              	.LVL18:
 203:InterruptRoutines.c ****                
 341              		.loc 1 203 0
 342 012c 4E4B     		ldr	r3, .L51
 343 012e 1A78     		ldrb	r2, [r3]	@ zero_extendqisi2
 344 0130 504B     		ldr	r3, .L51+12
 345 0132 1A70     		strb	r2, [r3]
 205:InterruptRoutines.c ****             case 'L':
 346              		.loc 1 205 0
 347 0134 70BD     		pop	{r4, r5, r6, pc}
 348              	.L20:
 208:InterruptRoutines.c ****                 UART_PutString("|Character | Sensor                   |\n| 0        | Store luminos
 349              		.loc 1 208 0
 350 0136 FFF7FEFF 		bl	Timer_STREAM_Stop
 351              	.LVL19:
 209:InterruptRoutines.c ****                 configSets[0] = ch_receveid;
 352              		.loc 1 209 0
 353 013a 5748     		ldr	r0, .L51+48
 354 013c FFF7FEFF 		bl	UART_PutString
 355              	.LVL20:
 210:InterruptRoutines.c ****                 break;
 356              		.loc 1 210 0
 357 0140 494B     		ldr	r3, .L51
 358 0142 1A78     		ldrb	r2, [r3]	@ zero_extendqisi2
 359 0144 4B4B     		ldr	r3, .L51+12
 360 0146 1A70     		strb	r2, [r3]
 211:InterruptRoutines.c ****             case 'V':
 361              		.loc 1 211 0
 362 0148 70BD     		pop	{r4, r5, r6, pc}
 363              	.L23:
 214:InterruptRoutines.c ****                 PWM_BLINK_WriteCompare(0);
 364              		.loc 1 214 0
 365 014a 0020     		movs	r0, #0
 366 014c FFF7FEFF 		bl	PWM_BLINK_WritePeriod
 367              	.LVL21:
 215:InterruptRoutines.c ****                 
 368              		.loc 1 215 0
 369 0150 0020     		movs	r0, #0
ARM GAS  C:\Users\aless\AppData\Local\Temp\ccJnh5He.s 			page 15


 370 0152 FFF7FEFF 		bl	PWM_BLINK_WriteCompare
 371              	.LVL22:
 217:InterruptRoutines.c ****                 LIS3DH_setConfig(data_config);// set user-dependent settings
 372              		.loc 1 217 0
 373 0156 494D     		ldr	r5, .L51+20
 374 0158 0023     		movs	r3, #0
 375 015a EB70     		strb	r3, [r5, #3]
 218:InterruptRoutines.c ****                 configSets[0] = ch_receveid;
 376              		.loc 1 218 0
 377 015c 2846     		mov	r0, r5
 378 015e FFF7FEFF 		bl	LIS3DH_setConfig
 379              	.LVL23:
 219:InterruptRoutines.c ****                 //configSets[1] = 5;
 380              		.loc 1 219 0
 381 0162 414B     		ldr	r3, .L51
 382 0164 1A78     		ldrb	r2, [r3]	@ zero_extendqisi2
 383 0166 434B     		ldr	r3, .L51+12
 384 0168 1A70     		strb	r2, [r3]
 226:InterruptRoutines.c ****                 UART_PutString(bufferUART);
 385              		.loc 1 226 0
 386 016a 4C4E     		ldr	r6, .L51+52
 387 016c 3F4C     		ldr	r4, .L51+4
 388 016e 4C4B     		ldr	r3, .L51+56
 389 0170 1A78     		ldrb	r2, [r3]	@ zero_extendqisi2
 390 0172 3146     		mov	r1, r6
 391 0174 2046     		mov	r0, r4
 392 0176 FFF7FEFF 		bl	sprintf
 393              	.LVL24:
 227:InterruptRoutines.c ****                 
 394              		.loc 1 227 0
 395 017a 2046     		mov	r0, r4
 396 017c FFF7FEFF 		bl	UART_PutString
 397              	.LVL25:
 229:InterruptRoutines.c ****                 
 398              		.loc 1 229 0
 399 0180 2846     		mov	r0, r5
 400 0182 FFF7FEFF 		bl	LIS3DH_zipConfig
 401              	.LVL26:
 402 0186 0246     		mov	r2, r0
 403 0188 3D4B     		ldr	r3, .L51+24
 404 018a 1870     		strb	r0, [r3]
 231:InterruptRoutines.c ****                 UART_PutString(bufferUART);
 405              		.loc 1 231 0
 406 018c 3146     		mov	r1, r6
 407 018e 2046     		mov	r0, r4
 408 0190 FFF7FEFF 		bl	sprintf
 409              	.LVL27:
 232:InterruptRoutines.c ****                 
 410              		.loc 1 232 0
 411 0194 2046     		mov	r0, r4
 412 0196 FFF7FEFF 		bl	UART_PutString
 413              	.LVL28:
 234:InterruptRoutines.c ****                 
 414              		.loc 1 234 0
 415 019a 0120     		movs	r0, #1
 416 019c FFF7FEFF 		bl	Pin_LED_ext_Write
 417              	.LVL29:
ARM GAS  C:\Users\aless\AppData\Local\Temp\ccJnh5He.s 			page 16


 245:InterruptRoutines.c ****                 break;
 418              		.loc 1 245 0
 419 01a0 0122     		movs	r2, #1
 420 01a2 404B     		ldr	r3, .L51+60
 421 01a4 1A70     		strb	r2, [r3]
 246:InterruptRoutines.c ****             default:
 422              		.loc 1 246 0
 423 01a6 70BD     		pop	{r4, r5, r6, pc}
 424              	.L15:
 251:InterruptRoutines.c ****         switch(ch_receveid){
 425              		.loc 1 251 0
 426 01a8 562B     		cmp	r3, #86
 427 01aa 01D0     		beq	.L24
 251:InterruptRoutines.c ****         switch(ch_receveid){
 428              		.loc 1 251 0 is_stmt 0 discriminator 1
 429 01ac 762B     		cmp	r3, #118
 430 01ae 13D1     		bne	.L25
 431              	.L24:
 252:InterruptRoutines.c ****             case 'U':
 432              		.loc 1 252 0 is_stmt 1
 433 01b0 2D4B     		ldr	r3, .L51
 434 01b2 1B78     		ldrb	r3, [r3]	@ zero_extendqisi2
 435 01b4 552B     		cmp	r3, #85
 436 01b6 04D0     		beq	.L26
 437 01b8 752B     		cmp	r3, #117
 438 01ba 02D0     		beq	.L26
 439 01bc 3F2B     		cmp	r3, #63
 440 01be 40F01A81 		bne	.L14
 441              	.L26:
 256:InterruptRoutines.c ****                 Stopstream=1;
 442              		.loc 1 256 0
 443 01c2 FFF7FEFF 		bl	Timer_STREAM_Stop
 444              	.LVL30:
 257:InterruptRoutines.c ****                 Pin_LED_ext_Write(LED_OFF);
 445              		.loc 1 257 0
 446 01c6 0122     		movs	r2, #1
 447 01c8 374B     		ldr	r3, .L51+64
 448 01ca 1A70     		strb	r2, [r3]
 258:InterruptRoutines.c ****                 ShowMenu();
 449              		.loc 1 258 0
 450 01cc 0020     		movs	r0, #0
 451 01ce FFF7FEFF 		bl	Pin_LED_ext_Write
 452              	.LVL31:
 259:InterruptRoutines.c ****                 break;
 453              		.loc 1 259 0
 454 01d2 FFF7FEFF 		bl	ShowMenu
 455              	.LVL32:
 260:InterruptRoutines.c ****                 }
 456              		.loc 1 260 0
 457 01d6 70BD     		pop	{r4, r5, r6, pc}
 458              	.L25:
 264:InterruptRoutines.c ****             case 'f':
 459              		.loc 1 264 0
 460 01d8 463B     		subs	r3, r3, #70
 461 01da 2A2B     		cmp	r3, #42
 462 01dc 00F20B81 		bhi	.L14
 463 01e0 DFE813F0 		tbh	[pc, r3, lsl #1]
ARM GAS  C:\Users\aless\AppData\Local\Temp\ccJnh5He.s 			page 17


 464              	.L28:
 465 01e4 2B00     		.2byte	(.L27-.L28)/2
 466 01e6 0901     		.2byte	(.L14-.L28)/2
 467 01e8 0901     		.2byte	(.L14-.L28)/2
 468 01ea 0901     		.2byte	(.L14-.L28)/2
 469 01ec 0901     		.2byte	(.L14-.L28)/2
 470 01ee 0901     		.2byte	(.L14-.L28)/2
 471 01f0 E300     		.2byte	(.L29-.L28)/2
 472 01f2 0901     		.2byte	(.L14-.L28)/2
 473 01f4 0901     		.2byte	(.L14-.L28)/2
 474 01f6 0901     		.2byte	(.L14-.L28)/2
 475 01f8 8500     		.2byte	(.L30-.L28)/2
 476 01fa 0901     		.2byte	(.L14-.L28)/2
 477 01fc 0901     		.2byte	(.L14-.L28)/2
 478 01fe 0901     		.2byte	(.L14-.L28)/2
 479 0200 0901     		.2byte	(.L14-.L28)/2
 480 0202 0901     		.2byte	(.L14-.L28)/2
 481 0204 0901     		.2byte	(.L14-.L28)/2
 482 0206 0901     		.2byte	(.L14-.L28)/2
 483 0208 0901     		.2byte	(.L14-.L28)/2
 484 020a 0901     		.2byte	(.L14-.L28)/2
 485 020c 0901     		.2byte	(.L14-.L28)/2
 486 020e 0901     		.2byte	(.L14-.L28)/2
 487 0210 0901     		.2byte	(.L14-.L28)/2
 488 0212 0901     		.2byte	(.L14-.L28)/2
 489 0214 0901     		.2byte	(.L14-.L28)/2
 490 0216 0901     		.2byte	(.L14-.L28)/2
 491 0218 0901     		.2byte	(.L14-.L28)/2
 492 021a 0901     		.2byte	(.L14-.L28)/2
 493 021c 0901     		.2byte	(.L14-.L28)/2
 494 021e 0901     		.2byte	(.L14-.L28)/2
 495 0220 0901     		.2byte	(.L14-.L28)/2
 496 0222 0901     		.2byte	(.L14-.L28)/2
 497 0224 2B00     		.2byte	(.L27-.L28)/2
 498 0226 0901     		.2byte	(.L14-.L28)/2
 499 0228 0901     		.2byte	(.L14-.L28)/2
 500 022a 0901     		.2byte	(.L14-.L28)/2
 501 022c 0901     		.2byte	(.L14-.L28)/2
 502 022e 0901     		.2byte	(.L14-.L28)/2
 503 0230 E300     		.2byte	(.L29-.L28)/2
 504 0232 0901     		.2byte	(.L14-.L28)/2
 505 0234 0901     		.2byte	(.L14-.L28)/2
 506 0236 0901     		.2byte	(.L14-.L28)/2
 507 0238 8500     		.2byte	(.L30-.L28)/2
 508              		.p2align 1
 509              	.L27:
 267:InterruptRoutines.c ****                     case '1':
 510              		.loc 1 267 0
 511 023a 0B4B     		ldr	r3, .L51
 512 023c 1B78     		ldrb	r3, [r3]	@ zero_extendqisi2
 513 023e 313B     		subs	r3, r3, #49
 514 0240 0E2B     		cmp	r3, #14
 515 0242 50D8     		bhi	.L31
 516 0244 DFE803F0 		tbb	[pc, r3]
 517              	.L33:
 518 0248 08       		.byte	(.L32-.L33)/2
 519 0249 34       		.byte	(.L34-.L33)/2
ARM GAS  C:\Users\aless\AppData\Local\Temp\ccJnh5He.s 			page 18


 520 024a 3C       		.byte	(.L35-.L33)/2
 521 024b 44       		.byte	(.L36-.L33)/2
 522 024c 4F       		.byte	(.L31-.L33)/2
 523 024d 4F       		.byte	(.L31-.L33)/2
 524 024e 4F       		.byte	(.L31-.L33)/2
 525 024f 4F       		.byte	(.L31-.L33)/2
 526 0250 4F       		.byte	(.L31-.L33)/2
 527 0251 4F       		.byte	(.L31-.L33)/2
 528 0252 4F       		.byte	(.L31-.L33)/2
 529 0253 4F       		.byte	(.L31-.L33)/2
 530 0254 4F       		.byte	(.L31-.L33)/2
 531 0255 4F       		.byte	(.L31-.L33)/2
 532 0256 4C       		.byte	(.L37-.L33)/2
 533 0257 00       		.p2align 1
 534              	.L32:
 269:InterruptRoutines.c ****                         configSets[1]=1;
 535              		.loc 1 269 0
 536 0258 144B     		ldr	r3, .L51+68
 537 025a 1A78     		ldrb	r2, [r3]	@ zero_extendqisi2
 538 025c 074B     		ldr	r3, .L51+20
 539 025e 5A70     		strb	r2, [r3, #1]
 270:InterruptRoutines.c ****                         break;
 540              		.loc 1 270 0
 541 0260 0122     		movs	r2, #1
 542 0262 044B     		ldr	r3, .L51+12
 543 0264 5A70     		strb	r2, [r3, #1]
 271:InterruptRoutines.c ****                     case '2':
 544              		.loc 1 271 0
 545 0266 70BD     		pop	{r4, r5, r6, pc}
 546              	.L52:
 547              		.align	2
 548              	.L51:
 549 0268 00000000 		.word	ch_receveid
 550 026c 00000000 		.word	bufferUART
 551 0270 3C010000 		.word	.LC3
 552 0274 00000000 		.word	.LANCHOR1
 553 0278 50010000 		.word	.LC4
 554 027c 00000000 		.word	data_config
 555 0280 00000000 		.word	cfg_reg
 556 0284 00000000 		.word	memoryFull
 557 0288 00000000 		.word	indexEEPROM
 558 028c 00000000 		.word	update_cfg_reg
 559 0290 68010000 		.word	.LC5
 560 0294 34020000 		.word	.LC6
 561 0298 00030000 		.word	.LC7
 562 029c 7C030000 		.word	.LC8
 563 02a0 00000000 		.word	cfg_reg_old
 564 02a4 00000000 		.word	Startstream
 565 02a8 00000000 		.word	Stopstream
 566 02ac 00000000 		.word	lis3dh_dataRange_t
 567              	.L34:
 273:InterruptRoutines.c ****                         configSets[1]=2;
 568              		.loc 1 273 0
 569 02b0 514B     		ldr	r3, .L53
 570 02b2 5A78     		ldrb	r2, [r3, #1]	@ zero_extendqisi2
 571 02b4 514B     		ldr	r3, .L53+4
 572 02b6 5A70     		strb	r2, [r3, #1]
ARM GAS  C:\Users\aless\AppData\Local\Temp\ccJnh5He.s 			page 19


 274:InterruptRoutines.c ****                         break;
 573              		.loc 1 274 0
 574 02b8 0222     		movs	r2, #2
 575 02ba 514B     		ldr	r3, .L53+8
 576 02bc 5A70     		strb	r2, [r3, #1]
 275:InterruptRoutines.c ****                     case '3':
 577              		.loc 1 275 0
 578 02be 70BD     		pop	{r4, r5, r6, pc}
 579              	.L35:
 277:InterruptRoutines.c ****                         configSets[1]=3;
 580              		.loc 1 277 0
 581 02c0 4D4B     		ldr	r3, .L53
 582 02c2 9A78     		ldrb	r2, [r3, #2]	@ zero_extendqisi2
 583 02c4 4D4B     		ldr	r3, .L53+4
 584 02c6 5A70     		strb	r2, [r3, #1]
 278:InterruptRoutines.c ****                         
 585              		.loc 1 278 0
 586 02c8 0322     		movs	r2, #3
 587 02ca 4D4B     		ldr	r3, .L53+8
 588 02cc 5A70     		strb	r2, [r3, #1]
 280:InterruptRoutines.c ****                     case '4':
 589              		.loc 1 280 0
 590 02ce 70BD     		pop	{r4, r5, r6, pc}
 591              	.L36:
 282:InterruptRoutines.c ****                         configSets[1]=4;
 592              		.loc 1 282 0
 593 02d0 494B     		ldr	r3, .L53
 594 02d2 DA78     		ldrb	r2, [r3, #3]	@ zero_extendqisi2
 595 02d4 494B     		ldr	r3, .L53+4
 596 02d6 5A70     		strb	r2, [r3, #1]
 283:InterruptRoutines.c ****                         break;
 597              		.loc 1 283 0
 598 02d8 0422     		movs	r2, #4
 599 02da 494B     		ldr	r3, .L53+8
 600 02dc 5A70     		strb	r2, [r3, #1]
 284:InterruptRoutines.c ****                     case '?':
 601              		.loc 1 284 0
 602 02de 70BD     		pop	{r4, r5, r6, pc}
 603              	.L37:
 286:InterruptRoutines.c ****                         break;
 604              		.loc 1 286 0
 605 02e0 FFF7FEFF 		bl	ShowMenu
 606              	.LVL33:
 287:InterruptRoutines.c ****                     default:
 607              		.loc 1 287 0
 608 02e4 70BD     		pop	{r4, r5, r6, pc}
 609              	.L31:
 289:InterruptRoutines.c ****                         
 610              		.loc 1 289 0
 611 02e6 0522     		movs	r2, #5
 612 02e8 454B     		ldr	r3, .L53+8
 613 02ea 5A70     		strb	r2, [r3, #1]
 291:InterruptRoutines.c ****                 }
 614              		.loc 1 291 0
 615 02ec 70BD     		pop	{r4, r5, r6, pc}
 616              	.L30:
 297:InterruptRoutines.c ****                     case '1':
ARM GAS  C:\Users\aless\AppData\Local\Temp\ccJnh5He.s 			page 20


 617              		.loc 1 297 0
 618 02ee 454B     		ldr	r3, .L53+12
 619 02f0 1B78     		ldrb	r3, [r3]	@ zero_extendqisi2
 620 02f2 313B     		subs	r3, r3, #49
 621 02f4 0E2B     		cmp	r3, #14
 622 02f6 54D8     		bhi	.L38
 623 02f8 DFE803F0 		tbb	[pc, r3]
 624              	.L40:
 625 02fc 08       		.byte	(.L39-.L40)/2
 626 02fd 1A       		.byte	(.L41-.L40)/2
 627 02fe 2C       		.byte	(.L42-.L40)/2
 628 02ff 3E       		.byte	(.L43-.L40)/2
 629 0300 53       		.byte	(.L38-.L40)/2
 630 0301 53       		.byte	(.L38-.L40)/2
 631 0302 53       		.byte	(.L38-.L40)/2
 632 0303 53       		.byte	(.L38-.L40)/2
 633 0304 53       		.byte	(.L38-.L40)/2
 634 0305 53       		.byte	(.L38-.L40)/2
 635 0306 53       		.byte	(.L38-.L40)/2
 636 0307 53       		.byte	(.L38-.L40)/2
 637 0308 53       		.byte	(.L38-.L40)/2
 638 0309 53       		.byte	(.L38-.L40)/2
 639 030a 50       		.byte	(.L44-.L40)/2
 640 030b 00       		.p2align 1
 641              	.L39:
 299:InterruptRoutines.c ****                         sprintf(bufferUART, "dataconfig = 0x%02x\r\n", data_config[0]);
 642              		.loc 1 299 0
 643 030c 3E4B     		ldr	r3, .L53+16
 644 030e 1A78     		ldrb	r2, [r3]	@ zero_extendqisi2
 645 0310 42F00702 		orr	r2, r2, #7
 646 0314 394B     		ldr	r3, .L53+4
 647 0316 1A70     		strb	r2, [r3]
 300:InterruptRoutines.c ****                         UART_PutString(bufferUART);
 648              		.loc 1 300 0
 649 0318 3C4C     		ldr	r4, .L53+20
 650 031a 3D49     		ldr	r1, .L53+24
 651 031c 2046     		mov	r0, r4
 652 031e FFF7FEFF 		bl	sprintf
 653              	.LVL34:
 301:InterruptRoutines.c ****                         configSets[1]=1;
 654              		.loc 1 301 0
 655 0322 2046     		mov	r0, r4
 656 0324 FFF7FEFF 		bl	UART_PutString
 657              	.LVL35:
 302:InterruptRoutines.c ****                         break;
 658              		.loc 1 302 0
 659 0328 0122     		movs	r2, #1
 660 032a 354B     		ldr	r3, .L53+8
 661 032c 5A70     		strb	r2, [r3, #1]
 303:InterruptRoutines.c ****                     case '2':
 662              		.loc 1 303 0
 663 032e 70BD     		pop	{r4, r5, r6, pc}
 664              	.L41:
 305:InterruptRoutines.c ****                         configSets[1]=2;
 665              		.loc 1 305 0
 666 0330 354B     		ldr	r3, .L53+16
 667 0332 5A78     		ldrb	r2, [r3, #1]	@ zero_extendqisi2
ARM GAS  C:\Users\aless\AppData\Local\Temp\ccJnh5He.s 			page 21


 668 0334 42F00702 		orr	r2, r2, #7
 669 0338 304B     		ldr	r3, .L53+4
 670 033a 1A70     		strb	r2, [r3]
 306:InterruptRoutines.c ****                         sprintf(bufferUART, "dataconfig = 0x%02x\r\n", data_config[0]);
 671              		.loc 1 306 0
 672 033c 0221     		movs	r1, #2
 673 033e 304B     		ldr	r3, .L53+8
 674 0340 5970     		strb	r1, [r3, #1]
 307:InterruptRoutines.c ****                         UART_PutString(bufferUART);
 675              		.loc 1 307 0
 676 0342 324C     		ldr	r4, .L53+20
 677 0344 3249     		ldr	r1, .L53+24
 678 0346 2046     		mov	r0, r4
 679 0348 FFF7FEFF 		bl	sprintf
 680              	.LVL36:
 308:InterruptRoutines.c ****                         break;
 681              		.loc 1 308 0
 682 034c 2046     		mov	r0, r4
 683 034e FFF7FEFF 		bl	UART_PutString
 684              	.LVL37:
 309:InterruptRoutines.c ****                     case '3':
 685              		.loc 1 309 0
 686 0352 70BD     		pop	{r4, r5, r6, pc}
 687              	.L42:
 311:InterruptRoutines.c ****                         configSets[1]=3;
 688              		.loc 1 311 0
 689 0354 2C4B     		ldr	r3, .L53+16
 690 0356 9A78     		ldrb	r2, [r3, #2]	@ zero_extendqisi2
 691 0358 42F00702 		orr	r2, r2, #7
 692 035c 274B     		ldr	r3, .L53+4
 693 035e 1A70     		strb	r2, [r3]
 312:InterruptRoutines.c ****                         sprintf(bufferUART, "dataconfig = 0x%02x\r\n", data_config[0]);
 694              		.loc 1 312 0
 695 0360 0321     		movs	r1, #3
 696 0362 274B     		ldr	r3, .L53+8
 697 0364 5970     		strb	r1, [r3, #1]
 313:InterruptRoutines.c ****                         UART_PutString(bufferUART);
 698              		.loc 1 313 0
 699 0366 294C     		ldr	r4, .L53+20
 700 0368 2949     		ldr	r1, .L53+24
 701 036a 2046     		mov	r0, r4
 702 036c FFF7FEFF 		bl	sprintf
 703              	.LVL38:
 314:InterruptRoutines.c ****                         break;
 704              		.loc 1 314 0
 705 0370 2046     		mov	r0, r4
 706 0372 FFF7FEFF 		bl	UART_PutString
 707              	.LVL39:
 315:InterruptRoutines.c ****                     case '4':
 708              		.loc 1 315 0
 709 0376 70BD     		pop	{r4, r5, r6, pc}
 710              	.L43:
 317:InterruptRoutines.c ****                         configSets[1]=4;
 711              		.loc 1 317 0
 712 0378 234B     		ldr	r3, .L53+16
 713 037a DA78     		ldrb	r2, [r3, #3]	@ zero_extendqisi2
 714 037c 42F00702 		orr	r2, r2, #7
ARM GAS  C:\Users\aless\AppData\Local\Temp\ccJnh5He.s 			page 22


 715 0380 1E4B     		ldr	r3, .L53+4
 716 0382 1A70     		strb	r2, [r3]
 318:InterruptRoutines.c ****                         sprintf(bufferUART, "dataconfig = 0x%02x\r\n", data_config[0]);
 717              		.loc 1 318 0
 718 0384 0421     		movs	r1, #4
 719 0386 1E4B     		ldr	r3, .L53+8
 720 0388 5970     		strb	r1, [r3, #1]
 319:InterruptRoutines.c ****                         UART_PutString(bufferUART);
 721              		.loc 1 319 0
 722 038a 204C     		ldr	r4, .L53+20
 723 038c 2049     		ldr	r1, .L53+24
 724 038e 2046     		mov	r0, r4
 725 0390 FFF7FEFF 		bl	sprintf
 726              	.LVL40:
 320:InterruptRoutines.c ****                         break;
 727              		.loc 1 320 0
 728 0394 2046     		mov	r0, r4
 729 0396 FFF7FEFF 		bl	UART_PutString
 730              	.LVL41:
 321:InterruptRoutines.c ****                     case '?':
 731              		.loc 1 321 0
 732 039a 70BD     		pop	{r4, r5, r6, pc}
 733              	.L44:
 323:InterruptRoutines.c ****                         break;
 734              		.loc 1 323 0
 735 039c FFF7FEFF 		bl	ShowMenu
 736              	.LVL42:
 324:InterruptRoutines.c ****                     default:
 737              		.loc 1 324 0
 738 03a0 70BD     		pop	{r4, r5, r6, pc}
 739              	.L38:
 326:InterruptRoutines.c ****                         break;
 740              		.loc 1 326 0
 741 03a2 0522     		movs	r2, #5
 742 03a4 164B     		ldr	r3, .L53+8
 743 03a6 5A70     		strb	r2, [r3, #1]
 327:InterruptRoutines.c ****                 }
 744              		.loc 1 327 0
 745 03a8 70BD     		pop	{r4, r5, r6, pc}
 746              	.L29:
 333:InterruptRoutines.c ****                     case '0':
 747              		.loc 1 333 0
 748 03aa 164B     		ldr	r3, .L53+12
 749 03ac 1B78     		ldrb	r3, [r3]	@ zero_extendqisi2
 750 03ae 312B     		cmp	r3, #49
 751 03b0 0FD0     		beq	.L46
 752 03b2 3F2B     		cmp	r3, #63
 753 03b4 19D0     		beq	.L47
 754 03b6 302B     		cmp	r3, #48
 755 03b8 1AD1     		bne	.L49
 335:InterruptRoutines.c ****                         configSets[1] = 0;
 756              		.loc 1 335 0
 757 03ba 0020     		movs	r0, #0
 758 03bc FFF7FEFF 		bl	AMux_Select
 759              	.LVL43:
 336:InterruptRoutines.c ****                         UART_PutString("--> Photoresistor\n\r");
 760              		.loc 1 336 0
ARM GAS  C:\Users\aless\AppData\Local\Temp\ccJnh5He.s 			page 23


 761 03c0 0024     		movs	r4, #0
 762 03c2 0F4B     		ldr	r3, .L53+8
 763 03c4 5C70     		strb	r4, [r3, #1]
 337:InterruptRoutines.c ****                         data_config[2]=0;
 764              		.loc 1 337 0
 765 03c6 1348     		ldr	r0, .L53+28
 766 03c8 FFF7FEFF 		bl	UART_PutString
 767              	.LVL44:
 338:InterruptRoutines.c ****                         break;
 768              		.loc 1 338 0
 769 03cc 0B4B     		ldr	r3, .L53+4
 770 03ce 9C70     		strb	r4, [r3, #2]
 339:InterruptRoutines.c ****                     case '1':
 771              		.loc 1 339 0
 772 03d0 70BD     		pop	{r4, r5, r6, pc}
 773              	.L46:
 341:InterruptRoutines.c ****                         configSets[1] = 1;
 774              		.loc 1 341 0
 775 03d2 0120     		movs	r0, #1
 776 03d4 FFF7FEFF 		bl	AMux_Select
 777              	.LVL45:
 342:InterruptRoutines.c ****                         UART_PutString("--> Potentiometer\n\r");
 778              		.loc 1 342 0
 779 03d8 0124     		movs	r4, #1
 780 03da 094B     		ldr	r3, .L53+8
 781 03dc 5C70     		strb	r4, [r3, #1]
 343:InterruptRoutines.c ****                         data_config[2]=1;
 782              		.loc 1 343 0
 783 03de 0E48     		ldr	r0, .L53+32
 784 03e0 FFF7FEFF 		bl	UART_PutString
 785              	.LVL46:
 344:InterruptRoutines.c ****                         break;
 786              		.loc 1 344 0
 787 03e4 054B     		ldr	r3, .L53+4
 788 03e6 9C70     		strb	r4, [r3, #2]
 345:InterruptRoutines.c ****                     case '?':
 789              		.loc 1 345 0
 790 03e8 70BD     		pop	{r4, r5, r6, pc}
 791              	.L47:
 347:InterruptRoutines.c ****                         break;
 792              		.loc 1 347 0
 793 03ea FFF7FEFF 		bl	ShowMenu
 794              	.LVL47:
 348:InterruptRoutines.c ****                     default:
 795              		.loc 1 348 0
 796 03ee 70BD     		pop	{r4, r5, r6, pc}
 797              	.L49:
 350:InterruptRoutines.c ****                         break;
 798              		.loc 1 350 0
 799 03f0 0522     		movs	r2, #5
 800 03f2 034B     		ldr	r3, .L53+8
 801 03f4 5A70     		strb	r2, [r3, #1]
 802              	.L14:
 803 03f6 70BD     		pop	{r4, r5, r6, pc}
 804              	.L54:
 805              		.align	2
 806              	.L53:
ARM GAS  C:\Users\aless\AppData\Local\Temp\ccJnh5He.s 			page 24


 807 03f8 00000000 		.word	lis3dh_dataRange_t
 808 03fc 00000000 		.word	data_config
 809 0400 00000000 		.word	.LANCHOR1
 810 0404 00000000 		.word	ch_receveid
 811 0408 00000000 		.word	lis3dh_dataRate_t
 812 040c 00000000 		.word	bufferUART
 813 0410 94030000 		.word	.LC9
 814 0414 AC030000 		.word	.LC10
 815 0418 C0030000 		.word	.LC11
 816              		.cfi_endproc
 817              	.LFE65:
 818              		.size	Custom_ISR_RX, .-Custom_ISR_RX
 819              		.comm	indexEEPROM,2,2
 820              		.comm	Stopstream,1,1
 821              		.comm	Startstream,1,1
 822              		.comm	frequency,1,1
 823              		.comm	reg_value,1,1
 824              		.global	FlagFSR
 825              		.comm	bufferUART,200,4
 826              		.comm	update_cfg_reg,1,1
 827              		.comm	cfg_reg_old,1,1
 828              		.comm	cfg_reg,1,1
 829              		.comm	data_config,4,4
 830              		.global	configSets
 831              		.global	dataReady_STREAM
 832              		.global	dataReady_FIFO
 833              		.comm	ControlFlag,1,1
 834              		.comm	ch_receveid,1,1
 835              		.comm	value_digit_analog,2,2
 836              		.comm	PacketReadyFlag,1,1
 837              		.comm	DataBuffer,6,4
 838              		.data
 839              		.align	2
 840              		.set	.LANCHOR1,. + 0
 841              		.type	configSets, %object
 842              		.size	configSets, 2
 843              	configSets:
 844 0000 00       		.byte	0
 845 0001 05       		.byte	5
 846              		.section	.rodata.str1.4,"aMS",%progbits,1
 847              		.align	2
 848              	.LC0:
 849 0000 0A0D2020 		.ascii	"\012\015                *|WELCOME IN THE FINAL PROJ"
 849      20202020 
 849      20202020 
 849      20202020 
 849      20202A7C 
 850 002d 4543547C 		.ascii	"ECT|*                \015\012Please select your per"
 850      2A202020 
 850      20202020 
 850      20202020 
 850      20202020 
 851 005a 736F6E61 		.ascii	"sonal settings\015\012\000"
 851      6C207365 
 851      7474696E 
 851      67730D0A 
 851      00
ARM GAS  C:\Users\aless\AppData\Local\Temp\ccJnh5He.s 			page 25


 852 006b 00       		.space	1
 853              	.LC1:
 854 006c 20202020 		.ascii	"    Legend:\015\012\000"
 854      4C656765 
 854      6E643A0D 
 854      0A00
 855 007a 0000     		.space	2
 856              	.LC2:
 857 007c 20202020 		.ascii	"        B/b-->Start Data Acquisition\015\012       "
 857      20202020 
 857      422F622D 
 857      2D3E5374 
 857      61727420 
 858 00a9 20462F66 		.ascii	" F/f-->Select Full Scale Range\015\012        P/p--"
 858      2D2D3E53 
 858      656C6563 
 858      74204675 
 858      6C6C2053 
 859 00d6 3E53656C 		.ascii	">Select Sampling Frequency\015\012        L/l-->Sel"
 859      65637420 
 859      53616D70 
 859      6C696E67 
 859      20467265 
 860 0103 65637420 		.ascii	"ect Analog Sensor\015\012        S/s-->Stop data ac"
 860      416E616C 
 860      6F672053 
 860      656E736F 
 860      720D0A20 
 861 0130 71756973 		.ascii	"quisition\015\012\000"
 861      6974696F 
 861      6E0D0A00 
 862              	.LC3:
 863 013c 63685F72 		.ascii	"ch_received = %c\015\012\000"
 863      65636569 
 863      76656420 
 863      3D202563 
 863      0D0A00
 864 014f 00       		.space	1
 865              	.LC4:
 866 0150 636F6E66 		.ascii	"configSets = %d - %d\015\012\000"
 866      69675365 
 866      7473203D 
 866      20256420 
 866      2D202564 
 867 0167 00       		.space	1
 868              	.LC5:
 869 0168 7C436861 		.ascii	"|Character | Full Scale Range         |\012| 1     "
 869      72616374 
 869      6572207C 
 869      2046756C 
 869      6C205363 
 870 0198 2020207C 		.ascii	"   | +- 2g                    |\012| 2        | +- "
 870      202B2D20 
 870      32672020 
 870      20202020 
 870      20202020 
 871 01c8 34672020 		.ascii	"4g                    |\012| 3        | +- 8g      "
ARM GAS  C:\Users\aless\AppData\Local\Temp\ccJnh5He.s 			page 26


 871      20202020 
 871      20202020 
 871      20202020 
 871      20202020 
 872 01f8 20202020 		.ascii	"              |\012| 4        | +- 16g             "
 872      20202020 
 872      20202020 
 872      20207C0A 
 872      7C203420 
 873 0228 20202020 		.ascii	"      |\012\015\000"
 873      20207C0A 
 873      0D00
 874 0232 0000     		.space	2
 875              	.LC6:
 876 0234 7C436861 		.ascii	"|Character | Sampling Frequency       |\012| 1     "
 876      72616374 
 876      6572207C 
 876      2053616D 
 876      706C696E 
 877 0264 2020207C 		.ascii	"   |  1Hz                     |\012| 2        | 10H"
 877      20203148 
 877      7A202020 
 877      20202020 
 877      20202020 
 878 0294 7A202020 		.ascii	"z                     |\012| 3        | 25Hz       "
 878      20202020 
 878      20202020 
 878      20202020 
 878      20202020 
 879 02c4 20202020 		.ascii	"              |\012| 4        | 50Hz               "
 879      20202020 
 879      20202020 
 879      20207C0A 
 879      7C203420 
 880 02f4 20202020 		.ascii	"      |\012\015\000"
 880      20207C0A 
 880      0D00
 881 02fe 0000     		.space	2
 882              	.LC7:
 883 0300 7C436861 		.ascii	"|Character | Sensor                   |\012| 0     "
 883      72616374 
 883      6572207C 
 883      2053656E 
 883      736F7220 
 884 0330 2020207C 		.ascii	"   | Store luminosity data    |\012| 1        | Sto"
 884      2053746F 
 884      7265206C 
 884      756D696E 
 884      6F736974 
 885 0360 72652070 		.ascii	"re potentiometer data |\012\015\000"
 885      6F74656E 
 885      74696F6D 
 885      65746572 
 885      20646174 
 886 037a 0000     		.space	2
 887              	.LC8:
 888 037c 636F6E66 		.ascii	"config_reg = 0x%02x\015\012\000"
ARM GAS  C:\Users\aless\AppData\Local\Temp\ccJnh5He.s 			page 27


 888      69675F72 
 888      6567203D 
 888      20307825 
 888      3032780D 
 889 0392 0000     		.space	2
 890              	.LC9:
 891 0394 64617461 		.ascii	"dataconfig = 0x%02x\015\012\000"
 891      636F6E66 
 891      6967203D 
 891      20307825 
 891      3032780D 
 892 03aa 0000     		.space	2
 893              	.LC10:
 894 03ac 2D2D3E20 		.ascii	"--> Photoresistor\012\015\000"
 894      50686F74 
 894      6F726573 
 894      6973746F 
 894      720A0D00 
 895              	.LC11:
 896 03c0 2D2D3E20 		.ascii	"--> Potentiometer\012\015\000"
 896      506F7465 
 896      6E74696F 
 896      6D657465 
 896      720A0D00 
 897              		.bss
 898              		.set	.LANCHOR0,. + 0
 899              		.type	dataReady_FIFO, %object
 900              		.size	dataReady_FIFO, 1
 901              	dataReady_FIFO:
 902 0000 00       		.space	1
 903              		.type	dataReady_STREAM, %object
 904              		.size	dataReady_STREAM, 1
 905              	dataReady_STREAM:
 906 0001 00       		.space	1
 907              		.type	FlagFSR, %object
 908              		.size	FlagFSR, 1
 909              	FlagFSR:
 910 0002 00       		.space	1
 911              		.text
 912              	.Letext0:
 913              		.file 2 "c:\\program files (x86)\\cypress\\psoc creator\\4.3\\psoc creator\\import\\gnu\\arm\\5.4.
 914              		.file 3 "c:\\program files (x86)\\cypress\\psoc creator\\4.3\\psoc creator\\import\\gnu\\arm\\5.4.
 915              		.file 4 "Generated_Source\\PSoC5/cytypes.h"
 916              		.file 5 "Generated_Source\\PSoC5/core_cm3.h"
 917              		.file 6 "InterruptRoutines.h"
 918              		.file 7 "Generated_Source\\PSoC5/UART.h"
 919              		.file 8 "c:\\program files (x86)\\cypress\\psoc creator\\4.3\\psoc creator\\import\\gnu\\arm\\5.4.
 920              		.file 9 "Generated_Source\\PSoC5/PWM_BLINK.h"
 921              		.file 10 "LIS3DH.h"
 922              		.file 11 "Generated_Source\\PSoC5/Timer_STREAM.h"
 923              		.file 12 "Generated_Source\\PSoC5/Pin_LED_ext.h"
 924              		.file 13 "Generated_Source\\PSoC5/AMux.h"