ARM GAS  C:\Users\aless\AppData\Local\Temp\ccKBBmIH.s 			page 1


   1              		.syntax unified
   2              		.cpu cortex-m3
   3              		.fpu softvfp
   4              		.eabi_attribute 20, 1
   5              		.eabi_attribute 21, 1
   6              		.eabi_attribute 23, 3
   7              		.eabi_attribute 24, 1
   8              		.eabi_attribute 25, 1
   9              		.eabi_attribute 26, 1
  10              		.eabi_attribute 30, 1
  11              		.eabi_attribute 34, 1
  12              		.eabi_attribute 18, 4
  13              		.thumb
  14              		.syntax unified
  15              		.file	"LIS3DH.c"
  16              		.text
  17              	.Ltext0:
  18              		.cfi_sections	.debug_frame
  19              		.section	.text.LIS3DH_unzipConfig,"ax",%progbits
  20              		.align	2
  21              		.global	LIS3DH_unzipConfig
  22              		.thumb
  23              		.thumb_func
  24              		.type	LIS3DH_unzipConfig, %function
  25              	LIS3DH_unzipConfig:
  26              	.LFB0:
  27              		.file 1 "LIS3DH.c"
   1:LIS3DH.c      **** /* ========================================
   2:LIS3DH.c      ****  *
   3:LIS3DH.c      ****  * Copyright YOUR COMPANY, THE YEAR
   4:LIS3DH.c      ****  * All Rights Reserved
   5:LIS3DH.c      ****  * UNPUBLISHED, LICENSED SOFTWARE.
   6:LIS3DH.c      ****  *
   7:LIS3DH.c      ****  * CONFIDENTIAL AND PROPRIETARY INFORMATION
   8:LIS3DH.c      ****  * WHICH IS THE PROPERTY OF your company.
   9:LIS3DH.c      ****  *
  10:LIS3DH.c      ****  * ========================================
  11:LIS3DH.c      **** */
  12:LIS3DH.c      **** 
  13:LIS3DH.c      **** #include "LIS3DH.h"
  14:LIS3DH.c      **** 
  15:LIS3DH.c      **** const uint8_t lis3dh_dataRate_t[4]  = {0b00010000, 0b00100000, 0b00110000, 0b01000000};
  16:LIS3DH.c      **** const uint8_t lis3dh_dataRange_t[4] = {0b00000000, 0b00010000, 0b00100000, 0b00110000};
  17:LIS3DH.c      **** 
  18:LIS3DH.c      **** /** ====== Setup Functions ====== **/
  19:LIS3DH.c      **** 
  20:LIS3DH.c      **** // Go from compressed codec (1 byte) to uncompressed codec (4 bytes)
  21:LIS3DH.c      **** void LIS3DH_unzipConfig(uint8_t config_reg, volatile uint8_t* data) {
  28              		.loc 1 21 0
  29              		.cfi_startproc
  30              		@ args = 0, pretend = 0, frame = 0
  31              		@ frame_needed = 0, uses_anonymous_args = 0
  32              		@ link register save eliminated.
  33              	.LVL0:
  22:LIS3DH.c      ****     
  23:LIS3DH.c      ****     switch (config_reg & MASK_FS) { // FS
  34              		.loc 1 23 0
ARM GAS  C:\Users\aless\AppData\Local\Temp\ccKBBmIH.s 			page 2


  35 0000 00F00303 		and	r3, r0, #3
  36 0004 032B     		cmp	r3, #3
  37 0006 0ED8     		bhi	.L2
  38 0008 DFE803F0 		tbb	[pc, r3]
  39              	.L4:
  40 000c 02       		.byte	(.L3-.L4)/2
  41 000d 05       		.byte	(.L5-.L4)/2
  42 000e 08       		.byte	(.L6-.L4)/2
  43 000f 0B       		.byte	(.L7-.L4)/2
  44              		.p2align 1
  45              	.L3:
  24:LIS3DH.c      ****         case 0:     //  1Hz
  25:LIS3DH.c      ****             data[0] = lis3dh_dataRate_t[0] | CTRL_REG1_NORM;
  46              		.loc 1 25 0
  47 0010 1723     		movs	r3, #23
  48 0012 0B70     		strb	r3, [r1]
  26:LIS3DH.c      ****             break;
  49              		.loc 1 26 0
  50 0014 07E0     		b	.L2
  51              	.L5:
  27:LIS3DH.c      ****         case 1:     // 10Hz
  28:LIS3DH.c      ****             data[0] = lis3dh_dataRate_t[1] | CTRL_REG1_NORM;
  52              		.loc 1 28 0
  53 0016 2723     		movs	r3, #39
  54 0018 0B70     		strb	r3, [r1]
  29:LIS3DH.c      ****             break;
  55              		.loc 1 29 0
  56 001a 04E0     		b	.L2
  57              	.L6:
  30:LIS3DH.c      ****         case 2:     // 25Hz
  31:LIS3DH.c      ****             data[0] = lis3dh_dataRate_t[2] | CTRL_REG1_NORM;
  58              		.loc 1 31 0
  59 001c 3723     		movs	r3, #55
  60 001e 0B70     		strb	r3, [r1]
  32:LIS3DH.c      ****             break;
  61              		.loc 1 32 0
  62 0020 01E0     		b	.L2
  63              	.L7:
  33:LIS3DH.c      ****         case 3:     // 50Hz
  34:LIS3DH.c      ****             data[0] = lis3dh_dataRate_t[3] | CTRL_REG1_NORM;
  64              		.loc 1 34 0
  65 0022 4723     		movs	r3, #71
  66 0024 0B70     		strb	r3, [r1]
  67              	.L2:
  35:LIS3DH.c      ****             break;
  36:LIS3DH.c      ****         default:
  37:LIS3DH.c      ****             break;
  38:LIS3DH.c      ****     }
  39:LIS3DH.c      ****     
  40:LIS3DH.c      ****     switch ((config_reg & MASK_FSR) >> 2) { // FSR
  68              		.loc 1 40 0
  69 0026 C0F38103 		ubfx	r3, r0, #2, #2
  70 002a 032B     		cmp	r3, #3
  71 002c 0ED8     		bhi	.L8
  72 002e DFE803F0 		tbb	[pc, r3]
  73              	.L10:
  74 0032 02       		.byte	(.L9-.L10)/2
ARM GAS  C:\Users\aless\AppData\Local\Temp\ccKBBmIH.s 			page 3


  75 0033 05       		.byte	(.L11-.L10)/2
  76 0034 08       		.byte	(.L12-.L10)/2
  77 0035 0B       		.byte	(.L13-.L10)/2
  78              		.p2align 1
  79              	.L9:
  41:LIS3DH.c      ****         case 0:     // +- 2g
  42:LIS3DH.c      ****             data[1] = lis3dh_dataRange_t[0] | CTRL_REG4_NORM;
  80              		.loc 1 42 0
  81 0036 0023     		movs	r3, #0
  82 0038 4B70     		strb	r3, [r1, #1]
  43:LIS3DH.c      ****             break;
  83              		.loc 1 43 0
  84 003a 07E0     		b	.L8
  85              	.L11:
  44:LIS3DH.c      ****         case 1:     // +- 4g
  45:LIS3DH.c      ****             data[1] = lis3dh_dataRange_t[1] | CTRL_REG4_NORM;
  86              		.loc 1 45 0
  87 003c 1023     		movs	r3, #16
  88 003e 4B70     		strb	r3, [r1, #1]
  46:LIS3DH.c      ****             break;
  89              		.loc 1 46 0
  90 0040 04E0     		b	.L8
  91              	.L12:
  47:LIS3DH.c      ****         case 2:     // +- 8g
  48:LIS3DH.c      ****             data[1] = lis3dh_dataRange_t[2] | CTRL_REG4_NORM;
  92              		.loc 1 48 0
  93 0042 2023     		movs	r3, #32
  94 0044 4B70     		strb	r3, [r1, #1]
  49:LIS3DH.c      ****             break;
  95              		.loc 1 49 0
  96 0046 01E0     		b	.L8
  97              	.L13:
  50:LIS3DH.c      ****         case 3:     // +-16g
  51:LIS3DH.c      ****             data[1] = lis3dh_dataRange_t[3] | CTRL_REG4_NORM;
  98              		.loc 1 51 0
  99 0048 3023     		movs	r3, #48
 100 004a 4B70     		strb	r3, [r1, #1]
 101              	.L8:
  52:LIS3DH.c      ****             break;
  53:LIS3DH.c      ****         default:
  54:LIS3DH.c      ****             break;
  55:LIS3DH.c      ****     }
  56:LIS3DH.c      ****     
  57:LIS3DH.c      ****     switch ((config_reg & MASK_ANALOG) >> 4) { // ANALOG
 102              		.loc 1 57 0
 103 004c C0F30013 		ubfx	r3, r0, #4, #1
 104 0050 0BB1     		cbz	r3, .L15
 105 0052 1BB9     		cbnz	r3, .L16
 106 0054 04E0     		b	.L14
 107              	.L15:
  58:LIS3DH.c      ****         case 0:     // LDR
  59:LIS3DH.c      ****             data[2] = 0x00;
 108              		.loc 1 59 0
 109 0056 0023     		movs	r3, #0
 110 0058 8B70     		strb	r3, [r1, #2]
  60:LIS3DH.c      ****             break;
 111              		.loc 1 60 0
ARM GAS  C:\Users\aless\AppData\Local\Temp\ccKBBmIH.s 			page 4


 112 005a 01E0     		b	.L14
 113              	.L16:
  61:LIS3DH.c      ****         case 1:     // POT
  62:LIS3DH.c      ****             data[2] = 0x01;
 114              		.loc 1 62 0
 115 005c 0123     		movs	r3, #1
 116 005e 8B70     		strb	r3, [r1, #2]
 117              	.L14:
  63:LIS3DH.c      ****             break;
  64:LIS3DH.c      ****         default:
  65:LIS3DH.c      ****             break;
  66:LIS3DH.c      ****     }
  67:LIS3DH.c      ****     
  68:LIS3DH.c      ****     switch ((config_reg & MASK_START_STOP) >> 5) { // START/STOP
 118              		.loc 1 68 0
 119 0060 C0F34010 		ubfx	r0, r0, #5, #1
 120              	.LVL1:
 121 0064 08B1     		cbz	r0, .L18
 122 0066 18B9     		cbnz	r0, .L19
 123 0068 7047     		bx	lr
 124              	.L18:
  69:LIS3DH.c      ****         case 0:     // STOP
  70:LIS3DH.c      ****             data[3] = 0x00;
 125              		.loc 1 70 0
 126 006a 0023     		movs	r3, #0
 127 006c CB70     		strb	r3, [r1, #3]
  71:LIS3DH.c      ****             break;
 128              		.loc 1 71 0
 129 006e 7047     		bx	lr
 130              	.L19:
  72:LIS3DH.c      ****         case 1:     // START
  73:LIS3DH.c      ****             data[3] = 0x80;
 131              		.loc 1 73 0
 132 0070 8023     		movs	r3, #128
 133 0072 CB70     		strb	r3, [r1, #3]
 134 0074 7047     		bx	lr
 135              		.cfi_endproc
 136              	.LFE0:
 137              		.size	LIS3DH_unzipConfig, .-LIS3DH_unzipConfig
 138 0076 00BF     		.section	.text.LIS3DH_zipConfig,"ax",%progbits
 139              		.align	2
 140              		.global	LIS3DH_zipConfig
 141              		.thumb
 142              		.thumb_func
 143              		.type	LIS3DH_zipConfig, %function
 144              	LIS3DH_zipConfig:
 145              	.LFB1:
  74:LIS3DH.c      ****             break;
  75:LIS3DH.c      ****         default:
  76:LIS3DH.c      ****             break;
  77:LIS3DH.c      ****     }
  78:LIS3DH.c      **** }
  79:LIS3DH.c      **** 
  80:LIS3DH.c      **** // Go from uncompressed codec (4 bytes) to compressed codec (1 byte)
  81:LIS3DH.c      **** uint8 LIS3DH_zipConfig(volatile uint8_t* data ) {
 146              		.loc 1 81 0
 147              		.cfi_startproc
ARM GAS  C:\Users\aless\AppData\Local\Temp\ccKBBmIH.s 			page 5


 148              		@ args = 0, pretend = 0, frame = 0
 149              		@ frame_needed = 0, uses_anonymous_args = 0
 150              		@ link register save eliminated.
 151              	.LVL2:
  82:LIS3DH.c      ****     uint8_t config_reg=0;
  83:LIS3DH.c      ****     switch (data[0]) { // FS
 152              		.loc 1 83 0
 153 0000 0378     		ldrb	r3, [r0]	@ zero_extendqisi2
 154 0002 DBB2     		uxtb	r3, r3
 155 0004 372B     		cmp	r3, #55
 156 0006 05D0     		beq	.L22
 157 0008 472B     		cmp	r3, #71
 158 000a 05D0     		beq	.L23
 159 000c 272B     		cmp	r3, #39
 160 000e 05D0     		beq	.L33
  82:LIS3DH.c      ****     uint8_t config_reg=0;
 161              		.loc 1 82 0
 162 0010 0023     		movs	r3, #0
 163 0012 04E0     		b	.L24
 164              	.L22:
 165              	.LVL3:
  84:LIS3DH.c      ****         case 0x17:     //  1Hz
  85:LIS3DH.c      ****             config_reg= 0;
  86:LIS3DH.c      ****             break;
  87:LIS3DH.c      ****         case 0x27:     // 10Hz
  88:LIS3DH.c      ****             config_reg= 1;
  89:LIS3DH.c      ****             break;
  90:LIS3DH.c      ****         case 0x37:     // 25Hz
  91:LIS3DH.c      ****             config_reg= 2;
 166              		.loc 1 91 0
 167 0014 0223     		movs	r3, #2
  92:LIS3DH.c      ****             break;
 168              		.loc 1 92 0
 169 0016 02E0     		b	.L24
 170              	.LVL4:
 171              	.L23:
  93:LIS3DH.c      ****         case 0x47:     // 50Hz
  94:LIS3DH.c      ****             config_reg= 3;
 172              		.loc 1 94 0
 173 0018 0323     		movs	r3, #3
  95:LIS3DH.c      ****             break;
 174              		.loc 1 95 0
 175 001a 00E0     		b	.L24
 176              	.LVL5:
 177              	.L33:
  88:LIS3DH.c      ****             break;
 178              		.loc 1 88 0
 179 001c 0123     		movs	r3, #1
 180              	.LVL6:
 181              	.L24:
  96:LIS3DH.c      ****         default:
  97:LIS3DH.c      ****             break;
  98:LIS3DH.c      ****     }
  99:LIS3DH.c      ****     
 100:LIS3DH.c      ****     switch (data[1]) { // FSR
 182              		.loc 1 100 0
 183 001e 4278     		ldrb	r2, [r0, #1]	@ zero_extendqisi2
ARM GAS  C:\Users\aless\AppData\Local\Temp\ccKBBmIH.s 			page 6


 184 0020 D2B2     		uxtb	r2, r2
 185 0022 202A     		cmp	r2, #32
 186 0024 06D0     		beq	.L26
 187 0026 302A     		cmp	r2, #48
 188 0028 07D0     		beq	.L27
 189 002a 102A     		cmp	r2, #16
 190 002c 07D1     		bne	.L25
 101:LIS3DH.c      ****         case 0x00:     // +- 2g
 102:LIS3DH.c      ****             config_reg= config_reg | 0x00;
 103:LIS3DH.c      ****             break;
 104:LIS3DH.c      ****         case 0x10:     // +- 4g
 105:LIS3DH.c      ****             config_reg= config_reg | 0x04;
 191              		.loc 1 105 0
 192 002e 43F00403 		orr	r3, r3, #4
 193              	.LVL7:
 106:LIS3DH.c      ****             break;
 194              		.loc 1 106 0
 195 0032 04E0     		b	.L25
 196              	.L26:
 107:LIS3DH.c      ****         case 0x20:     // +- 8g
 108:LIS3DH.c      ****             config_reg= config_reg | 0x08;
 197              		.loc 1 108 0
 198 0034 43F00803 		orr	r3, r3, #8
 199              	.LVL8:
 109:LIS3DH.c      ****             break;
 200              		.loc 1 109 0
 201 0038 01E0     		b	.L25
 202              	.L27:
 110:LIS3DH.c      ****         case 0x30:     // +-16g
 111:LIS3DH.c      ****             config_reg= config_reg | 0x0C;
 203              		.loc 1 111 0
 204 003a 43F00C03 		orr	r3, r3, #12
 205              	.LVL9:
 206              	.L25:
 112:LIS3DH.c      ****             break;
 113:LIS3DH.c      ****         default:
 114:LIS3DH.c      ****             break;
 115:LIS3DH.c      ****     }
 116:LIS3DH.c      ****     
 117:LIS3DH.c      ****     switch (data[2]) { // ANALOG
 207              		.loc 1 117 0
 208 003e 8278     		ldrb	r2, [r0, #2]	@ zero_extendqisi2
 209 0040 D2B2     		uxtb	r2, r2
 210 0042 012A     		cmp	r2, #1
 211 0044 01D1     		bne	.L29
 118:LIS3DH.c      ****         case 0:     // LDR
 119:LIS3DH.c      ****             config_reg= config_reg | 0x00;
 120:LIS3DH.c      ****             break;
 121:LIS3DH.c      ****         case 1:     // POT
 122:LIS3DH.c      ****             config_reg= config_reg | 0x10;
 212              		.loc 1 122 0
 213 0046 43F01003 		orr	r3, r3, #16
 214              	.LVL10:
 215              	.L29:
 123:LIS3DH.c      ****             break;
 124:LIS3DH.c      ****         default:
 125:LIS3DH.c      ****             break;
ARM GAS  C:\Users\aless\AppData\Local\Temp\ccKBBmIH.s 			page 7


 126:LIS3DH.c      ****     }
 127:LIS3DH.c      ****     
 128:LIS3DH.c      ****     switch (data[3]) { // START/STOP
 216              		.loc 1 128 0
 217 004a C278     		ldrb	r2, [r0, #3]	@ zero_extendqisi2
 218 004c D2B2     		uxtb	r2, r2
 219 004e 802A     		cmp	r2, #128
 220 0050 01D1     		bne	.L31
 129:LIS3DH.c      ****         case 0x00:     // STOP
 130:LIS3DH.c      ****             config_reg= config_reg | 0x00;
 131:LIS3DH.c      ****             break;
 132:LIS3DH.c      ****         case 0x80:     // START
 133:LIS3DH.c      ****             config_reg= config_reg | 0x20;
 221              		.loc 1 133 0
 222 0052 43F02003 		orr	r3, r3, #32
 223              	.LVL11:
 224              	.L31:
 134:LIS3DH.c      ****             break;
 135:LIS3DH.c      ****         default:
 136:LIS3DH.c      ****             break;
 137:LIS3DH.c      ****     }
 138:LIS3DH.c      ****     return config_reg;
 139:LIS3DH.c      **** }
 225              		.loc 1 139 0
 226 0056 1846     		mov	r0, r3
 227              	.LVL12:
 228 0058 7047     		bx	lr
 229              		.cfi_endproc
 230              	.LFE1:
 231              		.size	LIS3DH_zipConfig, .-LIS3DH_zipConfig
 232 005a 00BF     		.section	.text.LIS3DH_readStatus,"ax",%progbits
 233              		.align	2
 234              		.global	LIS3DH_readStatus
 235              		.thumb
 236              		.thumb_func
 237              		.type	LIS3DH_readStatus, %function
 238              	LIS3DH_readStatus:
 239              	.LFB4:
 140:LIS3DH.c      **** 
 141:LIS3DH.c      **** // Set default registers
 142:LIS3DH.c      **** void LIS3DH_Init(void) {
 143:LIS3DH.c      ****     
 144:LIS3DH.c      ****     // Set CTRL_REG5 | Reboot
 145:LIS3DH.c      ****     LIS3DH_writeByte(CTRL_REG5, CTRL_REG5_REBOOT);
 146:LIS3DH.c      ****     // Set CTRL_REG3
 147:LIS3DH.c      ****     LIS3DH_writeByte(CTRL_REG3, CTRL_REG3_I1_OVERRUN);
 148:LIS3DH.c      ****     // Set CTRL_REG5
 149:LIS3DH.c      ****     LIS3DH_writeByte(CTRL_REG5, CTRL_REG5_FIFO_EN);
 150:LIS3DH.c      ****     // Clear LIS3DH FIFO
 151:LIS3DH.c      ****     LIS3DH_writeByte(FIFO_CTRL_REG, FIFO_CTRL_REG_BYPASS);
 152:LIS3DH.c      ****     
 153:LIS3DH.c      **** }
 154:LIS3DH.c      **** 
 155:LIS3DH.c      **** // Set user-dependent registers
 156:LIS3DH.c      **** void LIS3DH_setConfig(volatile uint8_t* data){
 157:LIS3DH.c      ****     
 158:LIS3DH.c      ****     // Set CTRL_REG1 (FS)
ARM GAS  C:\Users\aless\AppData\Local\Temp\ccKBBmIH.s 			page 8


 159:LIS3DH.c      ****     LIS3DH_writeByte(CTRL_REG1, data[0]);
 160:LIS3DH.c      ****     // Set CTRL_REG4 (FSR)
 161:LIS3DH.c      ****     LIS3DH_writeByte(CTRL_REG4, data[1]);
 162:LIS3DH.c      ****     //Set LIS3DH FIFO (bypass/stream)
 163:LIS3DH.c      ****     LIS3DH_writeByte(FIFO_CTRL_REG, data[3]);
 164:LIS3DH.c      ****     
 165:LIS3DH.c      **** }
 166:LIS3DH.c      **** 
 167:LIS3DH.c      **** /** ====== Helper Functions ====== **/
 168:LIS3DH.c      **** 
 169:LIS3DH.c      **** uint8_t LIS3DH_readStatus() {
 240              		.loc 1 169 0
 241              		.cfi_startproc
 242              		@ args = 0, pretend = 0, frame = 0
 243              		@ frame_needed = 0, uses_anonymous_args = 0
 244 0000 08B5     		push	{r3, lr}
 245              		.cfi_def_cfa_offset 8
 246              		.cfi_offset 3, -8
 247              		.cfi_offset 14, -4
 170:LIS3DH.c      ****     
 171:LIS3DH.c      **** 	return SPI_Interface_ReadByte_LIS3DH(SPI_LIS3DH_READ | FIFO_SRC_REG);
 248              		.loc 1 171 0
 249 0002 AF20     		movs	r0, #175
 250 0004 FFF7FEFF 		bl	SPI_Interface_ReadByte_LIS3DH
 251              	.LVL13:
 172:LIS3DH.c      ****     
 173:LIS3DH.c      **** }
 252              		.loc 1 173 0
 253 0008 08BD     		pop	{r3, pc}
 254              		.cfi_endproc
 255              	.LFE4:
 256              		.size	LIS3DH_readStatus, .-LIS3DH_readStatus
 257 000a 00BF     		.section	.text.LIS3DH_readByte,"ax",%progbits
 258              		.align	2
 259              		.global	LIS3DH_readByte
 260              		.thumb
 261              		.thumb_func
 262              		.type	LIS3DH_readByte, %function
 263              	LIS3DH_readByte:
 264              	.LFB5:
 174:LIS3DH.c      **** 
 175:LIS3DH.c      **** /** ====== User-level Functions ====== **/
 176:LIS3DH.c      **** 
 177:LIS3DH.c      **** uint8_t LIS3DH_readByte(uint8_t addr) {
 265              		.loc 1 177 0
 266              		.cfi_startproc
 267              		@ args = 0, pretend = 0, frame = 0
 268              		@ frame_needed = 0, uses_anonymous_args = 0
 269              	.LVL14:
 270 0000 08B5     		push	{r3, lr}
 271              		.cfi_def_cfa_offset 8
 272              		.cfi_offset 3, -8
 273              		.cfi_offset 14, -4
 274              	.LVL15:
 178:LIS3DH.c      ****     
 179:LIS3DH.c      **** 	/* Prepare the TX data packet: instruction + address */
 180:LIS3DH.c      **** 	uint8_t dataTX = {SPI_LIS3DH_READ | addr};
ARM GAS  C:\Users\aless\AppData\Local\Temp\ccKBBmIH.s 			page 9


 181:LIS3DH.c      **** 	
 182:LIS3DH.c      **** 	/* Prepare the RX byte */
 183:LIS3DH.c      **** 	uint8_t dataRX;
 184:LIS3DH.c      **** 	
 185:LIS3DH.c      **** 	/* Read 1 byte from addr */
 186:LIS3DH.c      **** 	dataRX = SPI_Interface_ReadByte_LIS3DH(dataTX);
 275              		.loc 1 186 0
 276 0002 40F08000 		orr	r0, r0, #128
 277              	.LVL16:
 278 0006 FFF7FEFF 		bl	SPI_Interface_ReadByte_LIS3DH
 279              	.LVL17:
 187:LIS3DH.c      ****     
 188:LIS3DH.c      **** 	return dataRX;
 189:LIS3DH.c      **** }
 280              		.loc 1 189 0
 281 000a 08BD     		pop	{r3, pc}
 282              		.cfi_endproc
 283              	.LFE5:
 284              		.size	LIS3DH_readByte, .-LIS3DH_readByte
 285              		.section	.text.LIS3DH_writeByte,"ax",%progbits
 286              		.align	2
 287              		.global	LIS3DH_writeByte
 288              		.thumb
 289              		.thumb_func
 290              		.type	LIS3DH_writeByte, %function
 291              	LIS3DH_writeByte:
 292              	.LFB6:
 190:LIS3DH.c      **** 
 191:LIS3DH.c      **** void LIS3DH_writeByte(uint8_t addr, uint8_t dataByte) {
 293              		.loc 1 191 0
 294              		.cfi_startproc
 295              		@ args = 0, pretend = 0, frame = 8
 296              		@ frame_needed = 0, uses_anonymous_args = 0
 297              	.LVL18:
 298 0000 70B5     		push	{r4, r5, r6, lr}
 299              		.cfi_def_cfa_offset 16
 300              		.cfi_offset 4, -16
 301              		.cfi_offset 5, -12
 302              		.cfi_offset 6, -8
 303              		.cfi_offset 14, -4
 304 0002 82B0     		sub	sp, sp, #8
 305              		.cfi_def_cfa_offset 24
 306 0004 0646     		mov	r6, r0
 307 0006 0D46     		mov	r5, r1
 192:LIS3DH.c      ****     
 193:LIS3DH.c      ****     // Save current global interrupt enable and disable it 
 194:LIS3DH.c      ****     uint8 interruptState;
 195:LIS3DH.c      ****     interruptState = CyEnterCriticalSection();
 308              		.loc 1 195 0
 309 0008 FFF7FEFF 		bl	CyEnterCriticalSection
 310              	.LVL19:
 311 000c 0446     		mov	r4, r0
 312              	.LVL20:
 196:LIS3DH.c      **** 	
 197:LIS3DH.c      **** 	// Prepare the TX packet
 198:LIS3DH.c      ****     uint8_t dataTX[2] = {SPI_LIS3DH_WRITE | addr, dataByte};
 313              		.loc 1 198 0
ARM GAS  C:\Users\aless\AppData\Local\Temp\ccKBBmIH.s 			page 10


 314 000e 8DF80460 		strb	r6, [sp, #4]
 315 0012 8DF80550 		strb	r5, [sp, #5]
 199:LIS3DH.c      **** 	// Nothing to RX... 
 200:LIS3DH.c      **** 	uint8_t temp = 0;
 316              		.loc 1 200 0
 317 0016 0023     		movs	r3, #0
 318 0018 02AA     		add	r2, sp, #8
 319 001a 02F8053D 		strb	r3, [r2, #-5]!
 201:LIS3DH.c      **** 	
 202:LIS3DH.c      **** 	// Write 1 byte to addr
 203:LIS3DH.c      **** 	SPI_Interface_Multi_RW_LIS3DH(dataTX, 2, &temp, 0);
 320              		.loc 1 203 0
 321 001e 0221     		movs	r1, #2
 322 0020 01A8     		add	r0, sp, #4
 323 0022 FFF7FEFF 		bl	SPI_Interface_Multi_RW_LIS3DH
 324              	.LVL21:
 204:LIS3DH.c      ****     
 205:LIS3DH.c      ****     // Restore global interrupt enable state
 206:LIS3DH.c      ****     CyExitCriticalSection(interruptState);
 325              		.loc 1 206 0
 326 0026 2046     		mov	r0, r4
 327 0028 FFF7FEFF 		bl	CyExitCriticalSection
 328              	.LVL22:
 207:LIS3DH.c      **** }
 329              		.loc 1 207 0
 330 002c 02B0     		add	sp, sp, #8
 331              		.cfi_def_cfa_offset 16
 332              		@ sp needed
 333 002e 70BD     		pop	{r4, r5, r6, pc}
 334              		.cfi_endproc
 335              	.LFE6:
 336              		.size	LIS3DH_writeByte, .-LIS3DH_writeByte
 337              		.section	.text.LIS3DH_Init,"ax",%progbits
 338              		.align	2
 339              		.global	LIS3DH_Init
 340              		.thumb
 341              		.thumb_func
 342              		.type	LIS3DH_Init, %function
 343              	LIS3DH_Init:
 344              	.LFB2:
 142:LIS3DH.c      ****     
 345              		.loc 1 142 0
 346              		.cfi_startproc
 347              		@ args = 0, pretend = 0, frame = 0
 348              		@ frame_needed = 0, uses_anonymous_args = 0
 349 0000 08B5     		push	{r3, lr}
 350              		.cfi_def_cfa_offset 8
 351              		.cfi_offset 3, -8
 352              		.cfi_offset 14, -4
 145:LIS3DH.c      ****     // Set CTRL_REG3
 353              		.loc 1 145 0
 354 0002 8021     		movs	r1, #128
 355 0004 2420     		movs	r0, #36
 356 0006 FFF7FEFF 		bl	LIS3DH_writeByte
 357              	.LVL23:
 147:LIS3DH.c      ****     // Set CTRL_REG5
 358              		.loc 1 147 0
ARM GAS  C:\Users\aless\AppData\Local\Temp\ccKBBmIH.s 			page 11


 359 000a 0221     		movs	r1, #2
 360 000c 2220     		movs	r0, #34
 361 000e FFF7FEFF 		bl	LIS3DH_writeByte
 362              	.LVL24:
 149:LIS3DH.c      ****     // Clear LIS3DH FIFO
 363              		.loc 1 149 0
 364 0012 4821     		movs	r1, #72
 365 0014 2420     		movs	r0, #36
 366 0016 FFF7FEFF 		bl	LIS3DH_writeByte
 367              	.LVL25:
 151:LIS3DH.c      ****     
 368              		.loc 1 151 0
 369 001a 0021     		movs	r1, #0
 370 001c 2E20     		movs	r0, #46
 371 001e FFF7FEFF 		bl	LIS3DH_writeByte
 372              	.LVL26:
 373 0022 08BD     		pop	{r3, pc}
 374              		.cfi_endproc
 375              	.LFE2:
 376              		.size	LIS3DH_Init, .-LIS3DH_Init
 377              		.section	.text.LIS3DH_setConfig,"ax",%progbits
 378              		.align	2
 379              		.global	LIS3DH_setConfig
 380              		.thumb
 381              		.thumb_func
 382              		.type	LIS3DH_setConfig, %function
 383              	LIS3DH_setConfig:
 384              	.LFB3:
 156:LIS3DH.c      ****     
 385              		.loc 1 156 0
 386              		.cfi_startproc
 387              		@ args = 0, pretend = 0, frame = 0
 388              		@ frame_needed = 0, uses_anonymous_args = 0
 389              	.LVL27:
 390 0000 10B5     		push	{r4, lr}
 391              		.cfi_def_cfa_offset 8
 392              		.cfi_offset 4, -8
 393              		.cfi_offset 14, -4
 394 0002 0446     		mov	r4, r0
 159:LIS3DH.c      ****     // Set CTRL_REG4 (FSR)
 395              		.loc 1 159 0
 396 0004 0178     		ldrb	r1, [r0]	@ zero_extendqisi2
 397 0006 2020     		movs	r0, #32
 398              	.LVL28:
 399 0008 FFF7FEFF 		bl	LIS3DH_writeByte
 400              	.LVL29:
 161:LIS3DH.c      ****     //Set LIS3DH FIFO (bypass/stream)
 401              		.loc 1 161 0
 402 000c 6178     		ldrb	r1, [r4, #1]	@ zero_extendqisi2
 403 000e 2320     		movs	r0, #35
 404 0010 FFF7FEFF 		bl	LIS3DH_writeByte
 405              	.LVL30:
 163:LIS3DH.c      ****     
 406              		.loc 1 163 0
 407 0014 E178     		ldrb	r1, [r4, #3]	@ zero_extendqisi2
 408 0016 2E20     		movs	r0, #46
 409 0018 FFF7FEFF 		bl	LIS3DH_writeByte
ARM GAS  C:\Users\aless\AppData\Local\Temp\ccKBBmIH.s 			page 12


 410              	.LVL31:
 411 001c 10BD     		pop	{r4, pc}
 412              		.cfi_endproc
 413              	.LFE3:
 414              		.size	LIS3DH_setConfig, .-LIS3DH_setConfig
 415 001e 00BF     		.section	.text.LIS3DH_readPage,"ax",%progbits
 416              		.align	2
 417              		.global	LIS3DH_readPage
 418              		.thumb
 419              		.thumb_func
 420              		.type	LIS3DH_readPage, %function
 421              	LIS3DH_readPage:
 422              	.LFB7:
 208:LIS3DH.c      **** 
 209:LIS3DH.c      **** void LIS3DH_readPage(uint8_t addr, uint8_t* dataRX, uint8_t nBytes) {
 423              		.loc 1 209 0
 424              		.cfi_startproc
 425              		@ args = 0, pretend = 0, frame = 8
 426              		@ frame_needed = 0, uses_anonymous_args = 0
 427              	.LVL32:
 428 0000 00B5     		push	{lr}
 429              		.cfi_def_cfa_offset 4
 430              		.cfi_offset 14, -4
 431 0002 83B0     		sub	sp, sp, #12
 432              		.cfi_def_cfa_offset 16
 210:LIS3DH.c      ****     
 211:LIS3DH.c      **** 	/* Prepare the TX data packet: instruction + address */
 212:LIS3DH.c      **** 	uint8_t dataTX = {SPI_LIS3DH_READ_MULTI | addr};
 433              		.loc 1 212 0
 434 0004 60F03F03 		orn	r3, r0, #63
 435 0008 02A8     		add	r0, sp, #8
 436              	.LVL33:
 437 000a 00F8013D 		strb	r3, [r0, #-1]!
 213:LIS3DH.c      **** 	
 214:LIS3DH.c      **** 	/* Read the nBytes */
 215:LIS3DH.c      **** 	SPI_Interface_Multi_RW_LIS3DH(&dataTX, 1, dataRX, nBytes);
 438              		.loc 1 215 0
 439 000e 1346     		mov	r3, r2
 440 0010 0A46     		mov	r2, r1
 441              	.LVL34:
 442 0012 0121     		movs	r1, #1
 443              	.LVL35:
 444 0014 FFF7FEFF 		bl	SPI_Interface_Multi_RW_LIS3DH
 445              	.LVL36:
 216:LIS3DH.c      ****     
 217:LIS3DH.c      **** }
 446              		.loc 1 217 0
 447 0018 03B0     		add	sp, sp, #12
 448              		.cfi_def_cfa_offset 4
 449              		@ sp needed
 450 001a 5DF804FB 		ldr	pc, [sp], #4
 451              		.cfi_endproc
 452              	.LFE7:
 453              		.size	LIS3DH_readPage, .-LIS3DH_readPage
 454              		.global	lis3dh_dataRange_t
 455              		.global	lis3dh_dataRate_t
 456 001e 00BF     		.section	.rodata
ARM GAS  C:\Users\aless\AppData\Local\Temp\ccKBBmIH.s 			page 13


 457              		.align	2
 458              		.type	lis3dh_dataRange_t, %object
 459              		.size	lis3dh_dataRange_t, 4
 460              	lis3dh_dataRange_t:
 461 0000 00       		.byte	0
 462 0001 10       		.byte	16
 463 0002 20       		.byte	32
 464 0003 30       		.byte	48
 465              		.type	lis3dh_dataRate_t, %object
 466              		.size	lis3dh_dataRate_t, 4
 467              	lis3dh_dataRate_t:
 468 0004 10       		.byte	16
 469 0005 20       		.byte	32
 470 0006 30       		.byte	48
 471 0007 40       		.byte	64
 472              		.text
 473              	.Letext0:
 474              		.file 2 "c:\\program files (x86)\\cypress\\psoc creator\\4.3\\psoc creator\\import\\gnu\\arm\\5.4.
 475              		.file 3 "c:\\program files (x86)\\cypress\\psoc creator\\4.3\\psoc creator\\import\\gnu\\arm\\5.4.
 476              		.file 4 "Generated_Source\\PSoC5/cytypes.h"
 477              		.file 5 "SPI_Interface.h"
 478              		.file 6 "Generated_Source\\PSoC5/CyLib.h"