ARM GAS  C:\Users\aless\AppData\Local\Temp\ccn2Vog2.s 			page 1


   1              		.syntax unified
   2              		.cpu cortex-m3
   3              		.fpu softvfp
   4              		.eabi_attribute 20, 1
   5              		.eabi_attribute 21, 1
   6              		.eabi_attribute 23, 3
   7              		.eabi_attribute 24, 1
   8              		.eabi_attribute 25, 1
   9              		.eabi_attribute 26, 1
  10              		.eabi_attribute 30, 1
  11              		.eabi_attribute 34, 1
  12              		.eabi_attribute 18, 4
  13              		.thumb
  14              		.syntax unified
  15              		.file	"main.c"
  16              		.text
  17              	.Ltext0:
  18              		.cfi_sections	.debug_frame
  19              		.section	.text.CompressData,"ax",%progbits
  20              		.align	2
  21              		.global	CompressData
  22              		.thumb
  23              		.thumb_func
  24              		.type	CompressData, %function
  25              	CompressData:
  26              	.LFB65:
  27              		.file 1 "main.c"
   1:main.c        **** /* ========================================
   2:main.c        ****  *
   3:main.c        ****  * Copyright POLITECNICO DI MILANO, 2020
   4:main.c        ****  * All Rights Reserved
   5:main.c        ****  * UNPUBLISHED, LICENSED SOFTWARE.
   6:main.c        ****  *
   7:main.c        ****  * CONFIDENTIAL AND PROPRIETARY INFORMATION
   8:main.c        ****  * WHICH IS THE PROPERTY OF your company.
   9:main.c        ****  * 
  10:main.c        ****  * PROJECT DESCRIPTION:
  11:main.c        ****  * This project is about the development of
  12:main.c        ****  * a firmware able to store both accelero-
  13:main.c        ****  * meter and potentiometer/photoresistor
  14:main.c        ****  * data in an external EEPROM.
  15:main.c        ****  * The system allows to change the main
  16:main.c        ****  * settings (e.g. frequency, FSR and other
  17:main.c        ****  * parameters) thanks to a user-friendly
  18:main.c        ****  * menu displayed using the CoolTerm inter-
  19:main.c        ****  * face. Eventually, according to UART
  20:main.c        ****  * communication protocol, the data is
  21:main.c        ****  * sent to the Bridge Control Panel soft-
  22:main.c        ****  * ware in order to be plotted.
  23:main.c        ****  *
  24:main.c        ****  * ========================================
  25:main.c        **** */
  26:main.c        **** #include "project.h"
  27:main.c        **** 
  28:main.c        **** #include "InterruptRoutines.h"
  29:main.c        **** 
  30:main.c        **** /* -------- UART Communication --------- */
ARM GAS  C:\Users\aless\AppData\Local\Temp\ccn2Vog2.s 			page 2


  31:main.c        **** #include "stdio.h"
  32:main.c        **** #include "string.h"
  33:main.c        **** 
  34:main.c        **** /* ------------ DMA library ------------ */
  35:main.c        **** #include "DMARoutines.h"
  36:main.c        **** 
  37:main.c        **** /* ------ EEPROM 25LC256 Library ------- */
  38:main.c        **** #include "25LC256.h"
  39:main.c        **** 
  40:main.c        **** /* -- Acceletrometer LIS3DH Libraries -- */
  41:main.c        **** #include "LIS3DH.h"
  42:main.c        **** 
  43:main.c        **** /* ------ Size-related constants ------- */
  44:main.c        **** #define BYTE_TO_SEND 8 // payload size during transmission in bytes
  45:main.c        **** // Maximum number of bytes compressed in memory per interrupt
  46:main.c        **** #define ACC_PLUS_ANALOG_SIZE 0xC0 // 128 (acc) + 64 (adc) bytes
  47:main.c        **** 
  48:main.c        **** /* ------- Bridge Control Panel -------- */
  49:main.c        **** #define HEAD 0xA0
  50:main.c        **** #define TAIL 0xC0
  51:main.c        **** #define g_CONST 9.807       // physical constant (rounded at 3 decimal places)
  52:main.c        **** 
  53:main.c        **** /* -------------- STRUCTS -------------- */
  54:main.c        **** /* union of int16 matched with 2 uint8_t
  55:main.c        ****  * container for both physically meaninful
  56:main.c        ****  * data and ready-to-send bytes to BCP
  57:main.c        ****  */
  58:main.c        **** union t_data{                   
  59:main.c        ****     int16_t sample;
  60:main.c        ****     uint8_t bytes[2];
  61:main.c        **** };
  62:main.c        **** 
  63:main.c        **** /*----- Custom function prototypes ----- */
  64:main.c        **** void CompressData(uint8_t* dataInAcc, uint8_t* dataInADC, uint8_t SizeBuffer,  uint8_t* dataOut);
  65:main.c        **** void DeCompressData(uint8_t* dataIn, uint8_t* dataOut);
  66:main.c        **** void SampledToBridge(uint8_t* dataIn, union t_data* dataOut);
  67:main.c        **** void startSampling(volatile uint8_t* data);
  68:main.c        **** void UART_Debug_BCP(const uint8 string[], uint8 byteCount, uint8 head, uint8 tail);
  69:main.c        **** 
  70:main.c        **** /*-------- Global vars in main.c ------- */
  71:main.c        **** char bufferUART[200];
  72:main.c        **** volatile uint8_t cfg_reg; // | - | - | ACQUISITION ON/OFF | ANALOG | FSR | FSR | FS | FS |
  73:main.c        **** volatile uint8_t update_cfg_reg = 0;
  74:main.c        **** uint8_t cfg_reg_old;
  75:main.c        **** volatile uint8_t data_config[4];
  76:main.c        **** volatile uint16_t indexSTREAM = DATA_START; // starting point for streaming data
  77:main.c        **** 
  78:main.c        **** // Period (ms) used in timer to acquire or stream data packets
  79:main.c        **** const uint16_t Timer_Period[4] = {1000, 100, 40, 20}; // 1Hz, 10Hz, 25Hz, 50Hz
  80:main.c        **** 
  81:main.c        **** // From InterruptRoutines.c
  82:main.c        **** extern volatile uint8_t dataReady_FIFO;          // Flag for Custom_ISR_OVRN
  83:main.c        **** extern volatile uint8_t dataReady_DMA ;          // Flag for Custom_ISR_DMA
  84:main.c        **** extern volatile uint8_t dataReady_STREAM;        // Flag for Custom_ISR_STREAM
  85:main.c        **** extern uint8_t configSets[2];                    // (never written in different threads, no need fo
  86:main.c        **** 
  87:main.c        **** int main(void)
ARM GAS  C:\Users\aless\AppData\Local\Temp\ccn2Vog2.s 			page 3


  88:main.c        **** {
  89:main.c        ****     
  90:main.c        ****     /*----------------------------------------------*/
  91:main.c        ****     /*               Local variables                */
  92:main.c        ****     /*----------------------------------------------*/
  93:main.c        ****     uint8_t dataFIFO[SPI_LIS3DH_SIZE_BYTE]; // store data from readpage in LIS3DH
  94:main.c        ****     union t_data dataSample[4]; // Container for data from ADC and LIS3DH
  95:main.c        ****     // Indexes
  96:main.c        ****     uint16_t indexEEPROM;
  97:main.c        ****     uint16_t indexEEPROM_BCP = DATA_START; // copy of the index for streaming
  98:main.c        ****     // Buffers
  99:main.c        ****     uint8_t EEPROMBuffer[ACC_PLUS_ANALOG_SIZE]; // compressed data to be written in the EEPROM
 100:main.c        ****     uint8_t STREAMBufferIn[6];  // data packet straight out of the EEPROM
 101:main.c        ****     uint8_t STREAMBufferOut[8]; // same data decompressed
 102:main.c        ****     // EEPROM indexing management vars
 103:main.c        ****     uint8_t sizeEEPROMBuffer, indexEEPROMbuffer = 0;
 104:main.c        ****     uint8_t toNextPage, nBytes;
 105:main.c        ****     uint8_t  memoryFull = 0; // Flag
 106:main.c        ****     uint8_t reg_value;  // support variable
 107:main.c        ****     
 108:main.c        ****     /*----------------------------------------------*/
 109:main.c        ****     /*               Start components               */
 110:main.c        ****     /*----------------------------------------------*/
 111:main.c        ****     CyGlobalIntEnable; /* Enable global interrupts. */
 112:main.c        ****     
 113:main.c        ****     /* Start UART */
 114:main.c        ****     UART_Start();
 115:main.c        ****     // Allow CoolTerm to exchange information at startup and dump the buffers
 116:main.c        ****     CyDelay(1000);
 117:main.c        ****     
 118:main.c        ****     /*Start PWM*/
 119:main.c        ****     PWM_BLINK_Start();
 120:main.c        ****     
 121:main.c        ****     /* Start Counter_RESET */
 122:main.c        ****     Counter_INDEX_Start();
 123:main.c        ****     Counter_RESET_Start();
 124:main.c        ****     
 125:main.c        ****     /* Start SPI Masters */
 126:main.c        ****     SPIM_EEPROM_Start();
 127:main.c        ****     CyDelay(10);
 128:main.c        ****     SPIM_LIS3DH_Start();
 129:main.c        ****     CyDelay(10);
 130:main.c        ****     
 131:main.c        ****     /*----------------------------------------------*/
 132:main.c        ****     /*              Setup ADC and DMA               */
 133:main.c        ****     /*----------------------------------------------*/
 134:main.c        ****     /* MUX, ADC and DMA */
 135:main.c        ****     AMux_Start();
 136:main.c        ****     
 137:main.c        ****     ADC_DelSig_Start();     // Start ADC
 138:main.c        ****     ADC_DelSig_IRQ_Start(); // Enable ISR on EOC
 139:main.c        ****     
 140:main.c        ****     DMA_Config();           // Start DMA
 141:main.c        ****     
 142:main.c        ****     /*----------------------------------------------*/
 143:main.c        ****     /*                Setup 25LC256                 */
 144:main.c        ****     /*----------------------------------------------*/
ARM GAS  C:\Users\aless\AppData\Local\Temp\ccn2Vog2.s 			page 4


 145:main.c        ****     EEPROM_loadSettings(&cfg_reg, &indexEEPROM);
 146:main.c        ****     
 147:main.c        ****     sprintf(bufferUART, "** EEPROM Read\r\nconfig_reg = 0x%02x\r\nindexEEPROM = %d\r\n", cfg_reg, i
 148:main.c        ****     UART_PutString(bufferUART);
 149:main.c        ****     
 150:main.c        ****     UART_PutString("*************************************\r\n");
 151:main.c        ****     
 152:main.c        ****     /*----------------------------------------------*/
 153:main.c        ****     /*                 Setup LIS3DH                 */
 154:main.c        ****     /*----------------------------------------------*/
 155:main.c        ****     LIS3DH_unzipConfig(cfg_reg, data_config);   // extract settings from single settings byte
 156:main.c        ****     
 157:main.c        ****     // Display current settings
 158:main.c        ****     sprintf(bufferUART, "** LIS3DH Unzip\r\nFS     = 0x%02x\r\nFSR    = 0x%02x\r\nANALOG = 0x%02x\r
 159:main.c        ****     UART_PutString(bufferUART);
 160:main.c        ****     
 161:main.c        ****     LIS3DH_Init(); // set minimum settings for LIS3DH
 162:main.c        ****     LIS3DH_setConfig(data_config); // set user-dependent settings
 163:main.c        ****     
 164:main.c        ****     UART_PutString("** LIS3DH Read **\r\n");
 165:main.c        ****     
 166:main.c        ****     reg_value = LIS3DH_readByte(CTRL_REG3);
 167:main.c        ****     sprintf(bufferUART, "CTRL_REG3     = 0x%02x\r\n", reg_value);
 168:main.c        ****     UART_PutString(bufferUART);
 169:main.c        **** 
 170:main.c        ****     reg_value = LIS3DH_readByte(CTRL_REG5);
 171:main.c        ****     sprintf(bufferUART, "CTRL_REG5     = 0x%02x\r\n", reg_value);
 172:main.c        ****     UART_PutString(bufferUART);
 173:main.c        ****     
 174:main.c        ****     reg_value = LIS3DH_readByte(FIFO_CTRL_REG);
 175:main.c        ****     sprintf(bufferUART, "FIFO_CTRL_REG = 0x%02x\r\n", reg_value);
 176:main.c        ****     UART_PutString(bufferUART);
 177:main.c        ****     
 178:main.c        ****     reg_value = LIS3DH_readByte(CTRL_REG1);
 179:main.c        ****     sprintf(bufferUART, "CTRL_REG1     = 0x%02x\r\n", reg_value);
 180:main.c        ****     UART_PutString(bufferUART);
 181:main.c        ****     
 182:main.c        ****     reg_value = LIS3DH_readByte(CTRL_REG4);
 183:main.c        ****     sprintf(bufferUART, "CTRL_REG4     = 0x%02x\r\n", reg_value);
 184:main.c        ****     UART_PutString(bufferUART);
 185:main.c        ****     
 186:main.c        ****     UART_PutString("*************************************\r\n");
 187:main.c        ****     
 188:main.c        ****     /*----------------------------------------------*/
 189:main.c        ****     /*              Setup ISR routines              */
 190:main.c        ****     /*----------------------------------------------*/
 191:main.c        ****     isr_RX_StartEx(Custom_ISR_RX);              // enable ISR from UART RX
 192:main.c        ****     isr_TIMER_ADC_StartEx(Custom_ISR_TIMER);    // ISR on SOC
 193:main.c        ****     isr_INT_StartEx(Custom_ISR_OVRN);           // enable ISR from LIS3DH in the µC
 194:main.c        ****     isr_DMA_StartEx(Custom_ISR_DMA);            // ISR every 32 EOC
 195:main.c        ****     isr_STREAM_StartEx(Custom_ISR_STREAM);      // enable ISR for streaming data
 196:main.c        ****     isr_INDEX_StartEx(Custom_ISR_INDEX);        // ISR INDEX (5s)
 197:main.c        ****     isr_RESET_StartEx(Custom_ISR_RESET);        // ISR RESET (10s)
 198:main.c        ****     
 199:main.c        ****     /* ---------------- END OF SETUP -------------- */
 200:main.c        ****     
 201:main.c        ****     if(((cfg_reg>>5) & 0x01)) {         // In case of acquisition from previous run
ARM GAS  C:\Users\aless\AppData\Local\Temp\ccn2Vog2.s 			page 5


 202:main.c        ****         // Start ISR from LIS3DH
 203:main.c        ****         LIS3DH_setConfig(data_config);  // set user-dependent settings
 204:main.c        ****         //Analog sensor
 205:main.c        ****         AMux_Select(data_config[2]);    // select analog source
 206:main.c        ****         // Start ADC and built-in LED
 207:main.c        ****         startSampling(data_config);
 208:main.c        ****     }
 209:main.c        ****     
 210:main.c        ****     //UART_PutChar(0x0C); // Clear terminal (uncomment in case you want to hide the registers confi
 211:main.c        ****     ShowMenu(); // Begin by showing main interface
 212:main.c        ****     
 213:main.c        ****     while(UART_GetRxBufferSize()){UART_GetChar();} // Flush RX buffer
 214:main.c        ****     
 215:main.c        ****     for(;;)
 216:main.c        ****     {
 217:main.c        ****         while(UART_GetRxBufferSize()){UART_GetChar();} // Flush RX buffer
 218:main.c        ****         
 219:main.c        ****         /* ------------ Go into configuration mode ---------- */
 220:main.c        ****         if (configSets[0] && configSets[1]) {
 221:main.c        ****             
 222:main.c        ****             cfg_reg_old = cfg_reg; // save old settings
 223:main.c        ****             cfg_reg = LIS3DH_zipConfig(data_config); // generate new settings
 224:main.c        ****             
 225:main.c        ****             if (cfg_reg_old!=cfg_reg) { // compare old and new settings
 226:main.c        ****                 
 227:main.c        ****                 data_config[3] = 0x00; // Stop acquisition
 228:main.c        ****                 // Store new config in EEPROM
 229:main.c        ****                 cfg_reg = LIS3DH_zipConfig(data_config); // create new settings byte
 230:main.c        ****                 update_cfg_reg = 1; // ask to save settings
 231:main.c        ****             }
 232:main.c        ****             
 233:main.c        ****             UART_PutChar(0x0C); // In case settings don't change
 234:main.c        ****             ShowMenu();
 235:main.c        ****             
 236:main.c        ****             // Set RX default
 237:main.c        ****             configSets[0]=0;
 238:main.c        ****             configSets[1]=0;
 239:main.c        ****         }
 240:main.c        ****         
 241:main.c        ****         /* -------------- Update configurations ------------- */
 242:main.c        ****         if(update_cfg_reg & (!dataReady_FIFO) & (!dataReady_DMA)) { // activate save-settings only 
 243:main.c        ****             EEPROM_writeByte(CFG_REG, cfg_reg); // store settings in EEPROM
 244:main.c        ****             EEPROM_waitForWriteComplete();
 245:main.c        ****             
 246:main.c        ****             LIS3DH_unzipConfig(cfg_reg, data_config); //in case of push button
 247:main.c        ****             
 248:main.c        ****             LIS3DH_Init();
 249:main.c        ****             // Start/Stop ISR from LIS3DH
 250:main.c        ****             LIS3DH_setConfig(data_config); // set user-dependent settings
 251:main.c        ****             
 252:main.c        ****             //Analog sensor
 253:main.c        ****             AMux_Select(data_config[2]);
 254:main.c        ****             
 255:main.c        ****             if((((cfg_reg>>5) & 0x01)) && (!Timer_ADC_ReadControlRegister())) { // Start and avoid 
 256:main.c        ****                 startSampling(data_config);
 257:main.c        ****             }
 258:main.c        ****             if((!((cfg_reg>>5) & 0x01)) && (Timer_ADC_ReadControlRegister())) { // Stop and avoid d
ARM GAS  C:\Users\aless\AppData\Local\Temp\ccn2Vog2.s 			page 6


 259:main.c        ****                 Timer_ADC_ReadStatusRegister();
 260:main.c        ****                 Timer_ADC_Stop();               //Stop ADC
 261:main.c        ****                 
 262:main.c        ****                 PWM_BLINK_WritePeriod(0);       //Turn off built-in led
 263:main.c        ****                 PWM_BLINK_WriteCompare(0);
 264:main.c        ****                 
 265:main.c        ****                 indexEEPROM_BCP = indexEEPROM;  // Copy index for stream
 266:main.c        ****                 indexEEPROM = DATA_START;       // bring index back to start
 267:main.c        ****                 
 268:main.c        ****                 // Save new index in EEPROM
 269:main.c        ****                 EEPROM_writePage(INDEX_REG, (uint8_t*) &indexEEPROM, 2);
 270:main.c        ****                 EEPROM_waitForWriteComplete();
 271:main.c        ****                 
 272:main.c        ****                 if (memoryFull) {   // Start fast blinking
 273:main.c        ****                     PWM_BLINK_WritePeriod(49);
 274:main.c        ****                     PWM_BLINK_WriteCompare(25);
 275:main.c        ****                 }
 276:main.c        ****                 else {              // Stop fast blinking
 277:main.c        ****                     PWM_BLINK_WritePeriod(0);
 278:main.c        ****                     PWM_BLINK_WriteCompare(0);
 279:main.c        ****                 }
 280:main.c        ****                 
 281:main.c        ****                 LIS3DH_Init();
 282:main.c        ****                 CyDelay(5);
 283:main.c        ****                 LIS3DH_readByte(INT1_SRC);
 284:main.c        ****                 Timer_ADC_ReadStatusRegister();
 285:main.c        ****                 isr_DMA_ClearPending();
 286:main.c        ****                 isr_INT_ClearPending();
 287:main.c        ****                 dataReady_DMA = 0;
 288:main.c        ****                 dataReady_FIFO = 0;
 289:main.c        ****                 memoryFull = 0;
 290:main.c        ****             }
 291:main.c        ****             
 292:main.c        ****             // Clear terminal
 293:main.c        ****             UART_PutChar(0x0C);
 294:main.c        ****             ShowMenu();
 295:main.c        ****             // Exit config mode
 296:main.c        ****             update_cfg_reg = 0;
 297:main.c        ****         }
 298:main.c        ****         
 299:main.c        ****         /* -------------- Visualize data in BCP -------------- */
 300:main.c        ****         if(dataReady_STREAM & (!dataReady_FIFO) & (!dataReady_DMA)) {
 301:main.c        ****             
 302:main.c        ****             if(indexSTREAM >= indexEEPROM_BCP) { // send data in loop
 303:main.c        ****                 indexSTREAM  = DATA_START;
 304:main.c        ****                 // show beginning/end of acquisition (all values go to 10)
 305:main.c        ****                 uint8_t temp[8] = {0xE8, 0x03, 0xE8, 0x03, 0xE8, 0x03, 0x10, 0x27};
 306:main.c        ****                 UART_Debug_BCP(temp, 8, HEAD, TAIL);
 307:main.c        ****             }
 308:main.c        ****             
 309:main.c        ****             EEPROM_readPage(indexSTREAM, STREAMBufferIn, 6);    // read packet
 310:main.c        ****             DeCompressData(STREAMBufferIn, STREAMBufferOut);    // de-compress packet
 311:main.c        ****             SampledToBridge(STREAMBufferOut, dataSample);       // convert packet to physical quant
 312:main.c        ****             
 313:main.c        ****             // In case analog sensor is slightly out of range (see ADC)
 314:main.c        ****             if (dataSample[3].sample < MIN)    dataSample[3].sample = MIN;
 315:main.c        ****             if (dataSample[3].sample > MAX)    dataSample[3].sample = MAX;
ARM GAS  C:\Users\aless\AppData\Local\Temp\ccn2Vog2.s 			page 7


 316:main.c        ****             
 317:main.c        ****             // Send packet via UART
 318:main.c        ****             UART_Debug_BCP(dataSample[0].bytes, BYTE_TO_SEND, HEAD, TAIL);
 319:main.c        ****             
 320:main.c        ****             indexSTREAM +=6;
 321:main.c        ****             
 322:main.c        ****             // Wait for next ISR
 323:main.c        ****             dataReady_STREAM = 0;
 324:main.c        ****         }
 325:main.c        ****         
 326:main.c        ****         /* ---------- Data flow from DMA and LIS3DH ---------- */
 327:main.c        ****         if(dataReady_FIFO & dataReady_DMA & (!memoryFull)) {
 328:main.c        ****             
 329:main.c        ****             // Release INT line 
 330:main.c        ****             LIS3DH_readByte(INT1_SRC);
 331:main.c        ****             
 332:main.c        ****             //How many bytes from FIFO
 333:main.c        ****             reg_value = LIS3DH_readStatus();
 334:main.c        ****             
 335:main.c        ****             indexEEPROMbuffer = 0;
 336:main.c        ****             // From LIS3DH application note (2/3 * 3/2)
 337:main.c        ****             sizeEEPROMBuffer = ((reg_value & 0x5F) == 0x5F ? 0x20*6 : (reg_value & 0x1F)*6);
 338:main.c        ****             
 339:main.c        ****             // Data acquisition from FIFO
 340:main.c        ****             LIS3DH_readPage(OUT_X_L, dataFIFO, 96);
 341:main.c        ****             LIS3DH_readPage(OUT_X_L, &dataFIFO[96], 96);
 342:main.c        ****             
 343:main.c        ****             // Interlace FIFO and DMA, plus compress them
 344:main.c        ****             CompressData(dataFIFO, ADCBuffer, sizeEEPROMBuffer, EEPROMBuffer);
 345:main.c        ****             
 346:main.c        ****             // Write compressed data on EEPROM
 347:main.c        ****             while((indexEEPROMbuffer < sizeEEPROMBuffer) && (indexEEPROM <SPI_EEPROM_SIZE_BYTE)) {
 348:main.c        ****                 toNextPage = (indexEEPROM/SPI_EEPROM_PAGE_SIZE+1)*SPI_EEPROM_PAGE_SIZE - indexEEPRO
 349:main.c        ****                 nBytes = (toNextPage > (sizeEEPROMBuffer-indexEEPROMbuffer) ? (sizeEEPROMBuffer-ind
 350:main.c        ****                 EEPROM_waitForWriteComplete();
 351:main.c        ****                 EEPROM_writePage(indexEEPROM, (EEPROMBuffer+indexEEPROMbuffer), nBytes);
 352:main.c        ****                 EEPROM_waitForWriteComplete();
 353:main.c        ****                 
 354:main.c        ****                 indexEEPROMbuffer += nBytes;
 355:main.c        ****                 indexEEPROM += nBytes;
 356:main.c        ****             }
 357:main.c        ****             
 358:main.c        ****             // Store new indexEEPROM after writing data
 359:main.c        ****             EEPROM_writePage(INDEX_REG, (uint8_t*)&indexEEPROM, 2);
 360:main.c        ****             EEPROM_waitForWriteComplete();
 361:main.c        ****             
 362:main.c        ****             if (indexEEPROM > SPI_EEPROM_SIZE_BYTE && (!memoryFull)){ // the last write should stop
 363:main.c        ****                 memoryFull = 1;
 364:main.c        ****                 data_config[3]=0x00; // bypass mode
 365:main.c        ****                 cfg_reg = LIS3DH_zipConfig(data_config);
 366:main.c        ****                 update_cfg_reg = 1; // write on EEPROM new config
 367:main.c        ****             }
 368:main.c        ****             
 369:main.c        ****             dataReady_FIFO = 0; // acknowledge FIFO
 370:main.c        ****             dataReady_DMA = 0;  // acknowledge DMA
 371:main.c        ****             Timer_ADC_Start();
 372:main.c        ****         }
ARM GAS  C:\Users\aless\AppData\Local\Temp\ccn2Vog2.s 			page 8


 373:main.c        ****     }
 374:main.c        **** }
 375:main.c        **** 
 376:main.c        **** /* -- Compress data for minimizing storage used in the EEPROM -- */
 377:main.c        **** void CompressData(uint8_t* dataInAcc, uint8_t* dataInADC, uint8_t SizeBuffer, uint8_t* dataOut) {
  28              		.loc 1 377 0
  29              		.cfi_startproc
  30              		@ args = 0, pretend = 0, frame = 0
  31              		@ frame_needed = 0, uses_anonymous_args = 0
  32              	.LVL0:
  33 0000 2DE9F041 		push	{r4, r5, r6, r7, r8, lr}
  34              		.cfi_def_cfa_offset 24
  35              		.cfi_offset 4, -24
  36              		.cfi_offset 5, -20
  37              		.cfi_offset 6, -16
  38              		.cfi_offset 7, -12
  39              		.cfi_offset 8, -8
  40              		.cfi_offset 14, -4
  41              	.LVL1:
  42              	.LBB2:
 378:main.c        ****     // Compress data to required format
 379:main.c        ****     for(uint8_t i=0; i<SizeBuffer; i+=6) {
  43              		.loc 1 379 0
  44 0004 0024     		movs	r4, #0
  45 0006 35E0     		b	.L2
  46              	.LVL2:
  47              	.L3:
 380:main.c        ****         dataOut[i+0] = ((dataInAcc[i+1]  >>2));
  48              		.loc 1 380 0 discriminator 3
  49 0008 671C     		adds	r7, r4, #1
  50 000a C55D     		ldrb	r5, [r0, r7]	@ zero_extendqisi2
  51 000c AD08     		lsrs	r5, r5, #2
  52 000e 1D55     		strb	r5, [r3, r4]
 381:main.c        ****         dataOut[i+1] = ((dataInAcc[i+1]  <<6) | (dataInAcc[i]>>2) | (dataInAcc[i+3]>>4));
  53              		.loc 1 381 0 discriminator 3
  54 0010 C55D     		ldrb	r5, [r0, r7]	@ zero_extendqisi2
  55 0012 065D     		ldrb	r6, [r0, r4]	@ zero_extendqisi2
  56 0014 04F1030E 		add	lr, r4, #3
  57 0018 10F80EC0 		ldrb	ip, [r0, lr]	@ zero_extendqisi2
  58 001c B608     		lsrs	r6, r6, #2
  59 001e 46EA8515 		orr	r5, r6, r5, lsl #6
  60 0022 45EA1C15 		orr	r5, r5, ip, lsr #4
  61 0026 DD55     		strb	r5, [r3, r7]
 382:main.c        ****         dataOut[i+2] = ((dataInAcc[i+3]<<4) | (dataInAcc[i+2]>>4) | (dataInAcc[i+5]>>6));
  62              		.loc 1 382 0 discriminator 3
  63 0028 04F1020C 		add	ip, r4, #2
  64 002c 10F80E50 		ldrb	r5, [r0, lr]	@ zero_extendqisi2
  65 0030 10F80C60 		ldrb	r6, [r0, ip]	@ zero_extendqisi2
  66 0034 671D     		adds	r7, r4, #5
  67 0036 10F80780 		ldrb	r8, [r0, r7]	@ zero_extendqisi2
  68 003a 3609     		lsrs	r6, r6, #4
  69 003c 46EA0515 		orr	r5, r6, r5, lsl #4
  70 0040 45EA9815 		orr	r5, r5, r8, lsr #6
  71 0044 03F80C50 		strb	r5, [r3, ip]
 383:main.c        ****         dataOut[i+3] = ((dataInAcc[i+5]<<2) | (dataInAcc[i+4]>>6));
  72              		.loc 1 383 0 discriminator 3
  73 0048 10F807C0 		ldrb	ip, [r0, r7]	@ zero_extendqisi2
ARM GAS  C:\Users\aless\AppData\Local\Temp\ccn2Vog2.s 			page 9


  74 004c 261D     		adds	r6, r4, #4
  75 004e 855D     		ldrb	r5, [r0, r6]	@ zero_extendqisi2
  76 0050 AD09     		lsrs	r5, r5, #6
  77 0052 45EA8C05 		orr	r5, r5, ip, lsl #2
  78 0056 03F80E50 		strb	r5, [r3, lr]
 384:main.c        ****         // Append ADC value
 385:main.c        ****         dataOut[i+4] = (dataInADC[i/3+0]);
  79              		.loc 1 385 0 discriminator 3
  80 005a 084D     		ldr	r5, .L5
  81 005c A5FB04E5 		umull	lr, r5, r5, r4
  82 0060 6D08     		lsrs	r5, r5, #1
  83 0062 11F805E0 		ldrb	lr, [r1, r5]	@ zero_extendqisi2
  84 0066 03F806E0 		strb	lr, [r3, r6]
 386:main.c        ****         dataOut[i+5] = (dataInADC[i/3+1]);
  85              		.loc 1 386 0 discriminator 3
  86 006a 0D44     		add	r5, r5, r1
  87 006c 6D78     		ldrb	r5, [r5, #1]	@ zero_extendqisi2
  88 006e DD55     		strb	r5, [r3, r7]
 379:main.c        ****         dataOut[i+0] = ((dataInAcc[i+1]  >>2));
  89              		.loc 1 379 0 discriminator 3
  90 0070 0634     		adds	r4, r4, #6
  91              	.LVL3:
  92 0072 E4B2     		uxtb	r4, r4
  93              	.LVL4:
  94              	.L2:
 379:main.c        ****         dataOut[i+0] = ((dataInAcc[i+1]  >>2));
  95              		.loc 1 379 0 is_stmt 0 discriminator 1
  96 0074 9442     		cmp	r4, r2
  97 0076 C7D3     		bcc	.L3
  98              	.LBE2:
 387:main.c        ****     }
 388:main.c        **** }
  99              		.loc 1 388 0 is_stmt 1
 100 0078 BDE8F081 		pop	{r4, r5, r6, r7, r8, pc}
 101              	.LVL5:
 102              	.L6:
 103              		.align	2
 104              	.L5:
 105 007c ABAAAAAA 		.word	-1431655765
 106              		.cfi_endproc
 107              	.LFE65:
 108              		.size	CompressData, .-CompressData
 109              		.section	.text.DeCompressData,"ax",%progbits
 110              		.align	2
 111              		.global	DeCompressData
 112              		.thumb
 113              		.thumb_func
 114              		.type	DeCompressData, %function
 115              	DeCompressData:
 116              	.LFB66:
 389:main.c        **** 
 390:main.c        **** /* Decompress the data from the EEPROM and turn them into usable format */
 391:main.c        **** void DeCompressData(uint8_t* dataIn, uint8_t* dataOut) {
 117              		.loc 1 391 0
 118              		.cfi_startproc
 119              		@ args = 0, pretend = 0, frame = 0
 120              		@ frame_needed = 0, uses_anonymous_args = 0
ARM GAS  C:\Users\aless\AppData\Local\Temp\ccn2Vog2.s 			page 10


 121              		@ link register save eliminated.
 122              	.LVL6:
 392:main.c        ****     // Decompress data left adjusted for LIS3DH, right adjusted for ADC
 393:main.c        ****     dataOut[0] = ((dataIn[1]<<2) & 0xC0);           // X-low
 123              		.loc 1 393 0
 124 0000 4378     		ldrb	r3, [r0, #1]	@ zero_extendqisi2
 125 0002 9B00     		lsls	r3, r3, #2
 126 0004 23F03F03 		bic	r3, r3, #63
 127 0008 0B70     		strb	r3, [r1]
 394:main.c        ****     dataOut[1] = ((dataIn[0]<<2) | (dataIn[1]>>6)); // X-high
 128              		.loc 1 394 0
 129 000a 0278     		ldrb	r2, [r0]	@ zero_extendqisi2
 130 000c 4378     		ldrb	r3, [r0, #1]	@ zero_extendqisi2
 131 000e 9B09     		lsrs	r3, r3, #6
 132 0010 43EA8203 		orr	r3, r3, r2, lsl #2
 133 0014 4B70     		strb	r3, [r1, #1]
 395:main.c        ****     dataOut[2] = ((dataIn[2]<<4) & 0xC0);           // Y-low
 134              		.loc 1 395 0
 135 0016 8378     		ldrb	r3, [r0, #2]	@ zero_extendqisi2
 136 0018 1B01     		lsls	r3, r3, #4
 137 001a 23F03F03 		bic	r3, r3, #63
 138 001e 8B70     		strb	r3, [r1, #2]
 396:main.c        ****     dataOut[3] = ((dataIn[1]<<4) | (dataIn[2]>>4)); // Y-high
 139              		.loc 1 396 0
 140 0020 4278     		ldrb	r2, [r0, #1]	@ zero_extendqisi2
 141 0022 8378     		ldrb	r3, [r0, #2]	@ zero_extendqisi2
 142 0024 1B09     		lsrs	r3, r3, #4
 143 0026 43EA0213 		orr	r3, r3, r2, lsl #4
 144 002a CB70     		strb	r3, [r1, #3]
 397:main.c        ****     dataOut[4] = ((dataIn[3]<<6));                  // Z-low
 145              		.loc 1 397 0
 146 002c C378     		ldrb	r3, [r0, #3]	@ zero_extendqisi2
 147 002e 9B01     		lsls	r3, r3, #6
 148 0030 0B71     		strb	r3, [r1, #4]
 398:main.c        ****     dataOut[5] = ((dataIn[2]<<6) | (dataIn[3]>>2)); // Z-high
 149              		.loc 1 398 0
 150 0032 8278     		ldrb	r2, [r0, #2]	@ zero_extendqisi2
 151 0034 C378     		ldrb	r3, [r0, #3]	@ zero_extendqisi2
 152 0036 9B08     		lsrs	r3, r3, #2
 153 0038 43EA8213 		orr	r3, r3, r2, lsl #6
 154 003c 4B71     		strb	r3, [r1, #5]
 399:main.c        ****     dataOut[6] = (dataIn[4]);                       // ADC-low
 155              		.loc 1 399 0
 156 003e 0379     		ldrb	r3, [r0, #4]	@ zero_extendqisi2
 157 0040 8B71     		strb	r3, [r1, #6]
 400:main.c        ****     dataOut[7] = (dataIn[5]);                       // ADC-high
 158              		.loc 1 400 0
 159 0042 4379     		ldrb	r3, [r0, #5]	@ zero_extendqisi2
 160 0044 CB71     		strb	r3, [r1, #7]
 161 0046 7047     		bx	lr
 162              		.cfi_endproc
 163              	.LFE66:
 164              		.size	DeCompressData, .-DeCompressData
 165              		.global	__aeabi_i2f
 166              		.global	__aeabi_f2d
 167              		.global	__aeabi_dmul
 168              		.global	__aeabi_i2d
ARM GAS  C:\Users\aless\AppData\Local\Temp\ccn2Vog2.s 			page 11


 169              		.global	__aeabi_ddiv
 170              		.global	__aeabi_d2iz
 171              		.section	.text.SampledToBridge,"ax",%progbits
 172              		.align	2
 173              		.global	SampledToBridge
 174              		.thumb
 175              		.thumb_func
 176              		.type	SampledToBridge, %function
 177              	SampledToBridge:
 178              	.LFB67:
 401:main.c        **** }
 402:main.c        **** 
 403:main.c        **** /* Convert data from sampled to meaningful physical variables */
 404:main.c        **** void SampledToBridge(uint8_t* dataIn, union t_data* dataOut){
 179              		.loc 1 404 0
 180              		.cfi_startproc
 181              		@ args = 0, pretend = 0, frame = 8
 182              		@ frame_needed = 0, uses_anonymous_args = 0
 183              	.LVL7:
 184 0000 2DE9F041 		push	{r4, r5, r6, r7, r8, lr}
 185              		.cfi_def_cfa_offset 24
 186              		.cfi_offset 4, -24
 187              		.cfi_offset 5, -20
 188              		.cfi_offset 6, -16
 189              		.cfi_offset 7, -12
 190              		.cfi_offset 8, -8
 191              		.cfi_offset 14, -4
 192 0004 82B0     		sub	sp, sp, #8
 193              		.cfi_def_cfa_offset 32
 194 0006 0446     		mov	r4, r0
 195 0008 0D46     		mov	r5, r1
 405:main.c        ****     const uint8_t SampledTomg[4] = {4, 8, 16, 48};
 196              		.loc 1 405 0
 197 000a 434B     		ldr	r3, .L10+8
 198 000c 1868     		ldr	r0, [r3]	@ unaligned
 199              	.LVL8:
 200 000e 0190     		str	r0, [sp, #4]	@ unaligned
 406:main.c        ****     // Convert in m/s^2
 407:main.c        ****     dataOut[0].sample = (float) (((int16_t) (dataIn[0] | (dataIn[1]<<8))>>6))*g_CONST*SampledTomg[c
 201              		.loc 1 407 0
 202 0010 2378     		ldrb	r3, [r4]	@ zero_extendqisi2
 203 0012 6078     		ldrb	r0, [r4, #1]	@ zero_extendqisi2
 204 0014 43EA0020 		orr	r0, r3, r0, lsl #8
 205 0018 40F38910 		sbfx	r0, r0, #6, #10
 206 001c FFF7FEFF 		bl	__aeabi_i2f
 207              	.LVL9:
 208 0020 FFF7FEFF 		bl	__aeabi_f2d
 209              	.LVL10:
 210 0024 3AA3     		adr	r3, .L10
 211 0026 D3E90023 		ldrd	r2, [r3]
 212 002a FFF7FEFF 		bl	__aeabi_dmul
 213              	.LVL11:
 214 002e 0646     		mov	r6, r0
 215 0030 0F46     		mov	r7, r1
 216 0032 DFF8EC80 		ldr	r8, .L10+16
 217 0036 98F80030 		ldrb	r3, [r8]	@ zero_extendqisi2
 218 003a C3F38103 		ubfx	r3, r3, #2, #2
ARM GAS  C:\Users\aless\AppData\Local\Temp\ccn2Vog2.s 			page 12


 219 003e 02AA     		add	r2, sp, #8
 220 0040 1344     		add	r3, r3, r2
 221 0042 13F8040C 		ldrb	r0, [r3, #-4]	@ zero_extendqisi2
 222 0046 FFF7FEFF 		bl	__aeabi_i2d
 223              	.LVL12:
 224 004a 3246     		mov	r2, r6
 225 004c 3B46     		mov	r3, r7
 226 004e FFF7FEFF 		bl	__aeabi_dmul
 227              	.LVL13:
 228 0052 0022     		movs	r2, #0
 229 0054 314B     		ldr	r3, .L10+12
 230 0056 FFF7FEFF 		bl	__aeabi_ddiv
 231              	.LVL14:
 232 005a FFF7FEFF 		bl	__aeabi_d2iz
 233              	.LVL15:
 234 005e 2880     		strh	r0, [r5]	@ movhi
 408:main.c        ****     dataOut[1].sample = (float) (((int16_t) (dataIn[2] | (dataIn[3]<<8))>>6))*g_CONST*SampledTomg[c
 235              		.loc 1 408 0
 236 0060 A378     		ldrb	r3, [r4, #2]	@ zero_extendqisi2
 237 0062 E078     		ldrb	r0, [r4, #3]	@ zero_extendqisi2
 238 0064 43EA0020 		orr	r0, r3, r0, lsl #8
 239 0068 40F38910 		sbfx	r0, r0, #6, #10
 240 006c FFF7FEFF 		bl	__aeabi_i2f
 241              	.LVL16:
 242 0070 FFF7FEFF 		bl	__aeabi_f2d
 243              	.LVL17:
 244 0074 26A3     		adr	r3, .L10
 245 0076 D3E90023 		ldrd	r2, [r3]
 246 007a FFF7FEFF 		bl	__aeabi_dmul
 247              	.LVL18:
 248 007e 0646     		mov	r6, r0
 249 0080 0F46     		mov	r7, r1
 250 0082 98F80030 		ldrb	r3, [r8]	@ zero_extendqisi2
 251 0086 C3F38103 		ubfx	r3, r3, #2, #2
 252 008a 02AA     		add	r2, sp, #8
 253 008c 1344     		add	r3, r3, r2
 254 008e 13F8040C 		ldrb	r0, [r3, #-4]	@ zero_extendqisi2
 255 0092 FFF7FEFF 		bl	__aeabi_i2d
 256              	.LVL19:
 257 0096 3246     		mov	r2, r6
 258 0098 3B46     		mov	r3, r7
 259 009a FFF7FEFF 		bl	__aeabi_dmul
 260              	.LVL20:
 261 009e 0022     		movs	r2, #0
 262 00a0 1E4B     		ldr	r3, .L10+12
 263 00a2 FFF7FEFF 		bl	__aeabi_ddiv
 264              	.LVL21:
 265 00a6 FFF7FEFF 		bl	__aeabi_d2iz
 266              	.LVL22:
 267 00aa 6880     		strh	r0, [r5, #2]	@ movhi
 409:main.c        ****     dataOut[2].sample = (float) (((int16_t) (dataIn[4] | (dataIn[5]<<8))>>6))*g_CONST*SampledTomg[c
 268              		.loc 1 409 0
 269 00ac 2379     		ldrb	r3, [r4, #4]	@ zero_extendqisi2
 270 00ae 6079     		ldrb	r0, [r4, #5]	@ zero_extendqisi2
 271 00b0 43EA0020 		orr	r0, r3, r0, lsl #8
 272 00b4 40F38910 		sbfx	r0, r0, #6, #10
 273 00b8 FFF7FEFF 		bl	__aeabi_i2f
ARM GAS  C:\Users\aless\AppData\Local\Temp\ccn2Vog2.s 			page 13


 274              	.LVL23:
 275 00bc FFF7FEFF 		bl	__aeabi_f2d
 276              	.LVL24:
 277 00c0 13A3     		adr	r3, .L10
 278 00c2 D3E90023 		ldrd	r2, [r3]
 279 00c6 FFF7FEFF 		bl	__aeabi_dmul
 280              	.LVL25:
 281 00ca 0646     		mov	r6, r0
 282 00cc 0F46     		mov	r7, r1
 283 00ce 98F80030 		ldrb	r3, [r8]	@ zero_extendqisi2
 284 00d2 C3F38103 		ubfx	r3, r3, #2, #2
 285 00d6 02AA     		add	r2, sp, #8
 286 00d8 1344     		add	r3, r3, r2
 287 00da 13F8040C 		ldrb	r0, [r3, #-4]	@ zero_extendqisi2
 288 00de FFF7FEFF 		bl	__aeabi_i2d
 289              	.LVL26:
 290 00e2 3246     		mov	r2, r6
 291 00e4 3B46     		mov	r3, r7
 292 00e6 FFF7FEFF 		bl	__aeabi_dmul
 293              	.LVL27:
 294 00ea 0022     		movs	r2, #0
 295 00ec 0B4B     		ldr	r3, .L10+12
 296 00ee FFF7FEFF 		bl	__aeabi_ddiv
 297              	.LVL28:
 298 00f2 FFF7FEFF 		bl	__aeabi_d2iz
 299              	.LVL29:
 300 00f6 A880     		strh	r0, [r5, #4]	@ movhi
 410:main.c        ****     // Convert in V
 411:main.c        ****     dataOut[3].sample = ADC_DelSig_CountsTo_mVolts((int32_t) ((dataIn[6] | (dataIn[7]<<8))));
 301              		.loc 1 411 0
 302 00f8 A379     		ldrb	r3, [r4, #6]	@ zero_extendqisi2
 303 00fa E079     		ldrb	r0, [r4, #7]	@ zero_extendqisi2
 304 00fc 43EA0020 		orr	r0, r3, r0, lsl #8
 305 0100 FFF7FEFF 		bl	ADC_DelSig_CountsTo_mVolts
 306              	.LVL30:
 307 0104 E880     		strh	r0, [r5, #6]	@ movhi
 412:main.c        **** }
 308              		.loc 1 412 0
 309 0106 02B0     		add	sp, sp, #8
 310              		.cfi_def_cfa_offset 24
 311              		@ sp needed
 312 0108 BDE8F081 		pop	{r4, r5, r6, r7, r8, pc}
 313              	.LVL31:
 314              	.L11:
 315 010c AFF30080 		.align	3
 316              	.L10:
 317 0110 77BE9F1A 		.word	446676599
 318 0114 2F9D2340 		.word	1076075823
 319 0118 00000000 		.word	.LANCHOR0
 320 011c 00002440 		.word	1076101120
 321 0120 00000000 		.word	cfg_reg
 322              		.cfi_endproc
 323              	.LFE67:
 324              		.size	SampledToBridge, .-SampledToBridge
 325              		.section	.text.UART_Debug_BCP,"ax",%progbits
 326              		.align	2
 327              		.global	UART_Debug_BCP
ARM GAS  C:\Users\aless\AppData\Local\Temp\ccn2Vog2.s 			page 14


 328              		.thumb
 329              		.thumb_func
 330              		.type	UART_Debug_BCP, %function
 331              	UART_Debug_BCP:
 332              	.LFB68:
 413:main.c        **** 
 414:main.c        **** // Custom version of the PutArray function
 415:main.c        **** // it avoids having to deal with head and tail (I can place the data in a matrix and pass it as an 
 416:main.c        **** void UART_Debug_BCP(const uint8 string[], uint8 byteCount, uint8 head, uint8 tail)
 417:main.c        **** {
 333              		.loc 1 417 0
 334              		.cfi_startproc
 335              		@ args = 0, pretend = 0, frame = 0
 336              		@ frame_needed = 0, uses_anonymous_args = 0
 337              	.LVL32:
 338 0000 F8B5     		push	{r3, r4, r5, r6, r7, lr}
 339              		.cfi_def_cfa_offset 24
 340              		.cfi_offset 3, -24
 341              		.cfi_offset 4, -20
 342              		.cfi_offset 5, -16
 343              		.cfi_offset 6, -12
 344              		.cfi_offset 7, -8
 345              		.cfi_offset 14, -4
 346              	.LVL33:
 418:main.c        ****     uint8 bufIndex = 0u;
 419:main.c        **** 
 420:main.c        ****     /* If not Initialized then skip this function */
 421:main.c        ****     if(UART_initVar != 0u)
 347              		.loc 1 421 0
 348 0002 0B4C     		ldr	r4, .L17
 349 0004 2478     		ldrb	r4, [r4]	@ zero_extendqisi2
 350 0006 8CB1     		cbz	r4, .L12
 351 0008 1F46     		mov	r7, r3
 352 000a 0D46     		mov	r5, r1
 353 000c 0646     		mov	r6, r0
 422:main.c        ****     {
 423:main.c        ****         UART_PutChar(head);   // tranmit head
 354              		.loc 1 423 0
 355 000e 1046     		mov	r0, r2
 356              	.LVL34:
 357 0010 FFF7FEFF 		bl	UART_PutChar
 358              	.LVL35:
 418:main.c        ****     uint8 bufIndex = 0u;
 359              		.loc 1 418 0
 360 0014 0024     		movs	r4, #0
 424:main.c        ****         while(bufIndex < byteCount) // transmit body
 361              		.loc 1 424 0
 362 0016 04E0     		b	.L14
 363              	.LVL36:
 364              	.L15:
 425:main.c        ****         {
 426:main.c        ****             UART_PutChar(string[bufIndex]);
 365              		.loc 1 426 0
 366 0018 305D     		ldrb	r0, [r6, r4]	@ zero_extendqisi2
 367 001a FFF7FEFF 		bl	UART_PutChar
 368              	.LVL37:
 427:main.c        ****             bufIndex++;
ARM GAS  C:\Users\aless\AppData\Local\Temp\ccn2Vog2.s 			page 15


 369              		.loc 1 427 0
 370 001e 0134     		adds	r4, r4, #1
 371              	.LVL38:
 372 0020 E4B2     		uxtb	r4, r4
 373              	.LVL39:
 374              	.L14:
 424:main.c        ****         while(bufIndex < byteCount) // transmit body
 375              		.loc 1 424 0
 376 0022 AC42     		cmp	r4, r5
 377 0024 F8D3     		bcc	.L15
 428:main.c        ****         }
 429:main.c        ****         UART_PutChar(tail);   // transmit tail
 378              		.loc 1 429 0
 379 0026 3846     		mov	r0, r7
 380 0028 FFF7FEFF 		bl	UART_PutChar
 381              	.LVL40:
 382              	.L12:
 383 002c F8BD     		pop	{r3, r4, r5, r6, r7, pc}
 384              	.L18:
 385 002e 00BF     		.align	2
 386              	.L17:
 387 0030 00000000 		.word	UART_initVar
 388              		.cfi_endproc
 389              	.LFE68:
 390              		.size	UART_Debug_BCP, .-UART_Debug_BCP
 391              		.section	.text.startSampling,"ax",%progbits
 392              		.align	2
 393              		.global	startSampling
 394              		.thumb
 395              		.thumb_func
 396              		.type	startSampling, %function
 397              	startSampling:
 398              	.LFB69:
 430:main.c        ****     }
 431:main.c        **** }
 432:main.c        **** 
 433:main.c        **** void startSampling(volatile uint8_t* data) {
 399              		.loc 1 433 0
 400              		.cfi_startproc
 401              		@ args = 0, pretend = 0, frame = 0
 402              		@ frame_needed = 0, uses_anonymous_args = 0
 403              	.LVL41:
 404 0000 10B5     		push	{r4, lr}
 405              		.cfi_def_cfa_offset 8
 406              		.cfi_offset 4, -8
 407              		.cfi_offset 14, -4
 434:main.c        ****     // frequency 0 to 3
 435:main.c        ****     uint8_t frequency_ADC = ((*data>>4)&0x0F)-1;
 408              		.loc 1 435 0
 409 0002 0478     		ldrb	r4, [r0]	@ zero_extendqisi2
 410 0004 2409     		lsrs	r4, r4, #4
 411 0006 013C     		subs	r4, r4, #1
 412 0008 E4B2     		uxtb	r4, r4
 413              	.LVL42:
 436:main.c        ****     // Start Timer_ADC
 437:main.c        ****     Timer_ADC_Start();
 414              		.loc 1 437 0
ARM GAS  C:\Users\aless\AppData\Local\Temp\ccn2Vog2.s 			page 16


 415 000a FFF7FEFF 		bl	Timer_ADC_Start
 416              	.LVL43:
 438:main.c        ****     Timer_ADC_WritePeriod(Timer_Period[frequency_ADC]); // select frequency in const array
 417              		.loc 1 438 0
 418 000e 064B     		ldr	r3, .L21
 419 0010 03EB4404 		add	r4, r3, r4, lsl #1
 420              	.LVL44:
 421 0014 A088     		ldrh	r0, [r4, #4]
 422 0016 FFF7FEFF 		bl	Timer_ADC_WritePeriod
 423              	.LVL45:
 439:main.c        ****     
 440:main.c        ****     // Turn on built-in LED
 441:main.c        ****     PWM_BLINK_WritePeriod(199);     // T 1s
 424              		.loc 1 441 0
 425 001a C720     		movs	r0, #199
 426 001c FFF7FEFF 		bl	PWM_BLINK_WritePeriod
 427              	.LVL46:
 442:main.c        ****     PWM_BLINK_WriteCompare(100);    // 50% DC
 428              		.loc 1 442 0
 429 0020 6420     		movs	r0, #100
 430 0022 FFF7FEFF 		bl	PWM_BLINK_WriteCompare
 431              	.LVL47:
 432 0026 10BD     		pop	{r4, pc}
 433              	.L22:
 434              		.align	2
 435              	.L21:
 436 0028 00000000 		.word	.LANCHOR0
 437              		.cfi_endproc
 438              	.LFE69:
 439              		.size	startSampling, .-startSampling
 440              		.section	.text.main,"ax",%progbits
 441              		.align	2
 442              		.global	main
 443              		.thumb
 444              		.thumb_func
 445              		.type	main, %function
 446              	main:
 447              	.LFB64:
  88:main.c        ****     
 448              		.loc 1 88 0
 449              		.cfi_startproc
 450              		@ args = 0, pretend = 0, frame = 424
 451              		@ frame_needed = 0, uses_anonymous_args = 0
 452 0000 2DE9F041 		push	{r4, r5, r6, r7, r8, lr}
 453              		.cfi_def_cfa_offset 24
 454              		.cfi_offset 4, -24
 455              		.cfi_offset 5, -20
 456              		.cfi_offset 6, -16
 457              		.cfi_offset 7, -12
 458              		.cfi_offset 8, -8
 459              		.cfi_offset 14, -4
 460 0004 ECB0     		sub	sp, sp, #432
 461              		.cfi_def_cfa_offset 456
 462              	.LVL48:
 111:main.c        ****     
 463              		.loc 1 111 0
 464              		.syntax unified
ARM GAS  C:\Users\aless\AppData\Local\Temp\ccn2Vog2.s 			page 17


 465              	@ 111 "main.c" 1
 466 0006 62B6     		CPSIE   i
 467              	@ 0 "" 2
 114:main.c        ****     // Allow CoolTerm to exchange information at startup and dump the buffers
 468              		.loc 1 114 0
 469              		.thumb
 470              		.syntax unified
 471 0008 FFF7FEFF 		bl	UART_Start
 472              	.LVL49:
 116:main.c        ****     
 473              		.loc 1 116 0
 474 000c 4FF47A70 		mov	r0, #1000
 475 0010 FFF7FEFF 		bl	CyDelay
 476              	.LVL50:
 119:main.c        ****     
 477              		.loc 1 119 0
 478 0014 FFF7FEFF 		bl	PWM_BLINK_Start
 479              	.LVL51:
 122:main.c        ****     Counter_RESET_Start();
 480              		.loc 1 122 0
 481 0018 FFF7FEFF 		bl	Counter_INDEX_Start
 482              	.LVL52:
 123:main.c        ****     
 483              		.loc 1 123 0
 484 001c FFF7FEFF 		bl	Counter_RESET_Start
 485              	.LVL53:
 126:main.c        ****     CyDelay(10);
 486              		.loc 1 126 0
 487 0020 FFF7FEFF 		bl	SPIM_EEPROM_Start
 488              	.LVL54:
 127:main.c        ****     SPIM_LIS3DH_Start();
 489              		.loc 1 127 0
 490 0024 0A20     		movs	r0, #10
 491 0026 FFF7FEFF 		bl	CyDelay
 492              	.LVL55:
 128:main.c        ****     CyDelay(10);
 493              		.loc 1 128 0
 494 002a FFF7FEFF 		bl	SPIM_LIS3DH_Start
 495              	.LVL56:
 129:main.c        ****     
 496              		.loc 1 129 0
 497 002e 0A20     		movs	r0, #10
 498 0030 FFF7FEFF 		bl	CyDelay
 499              	.LVL57:
 135:main.c        ****     
 500              		.loc 1 135 0
 501 0034 FFF7FEFF 		bl	AMux_Start
 502              	.LVL58:
 137:main.c        ****     ADC_DelSig_IRQ_Start(); // Enable ISR on EOC
 503              		.loc 1 137 0
 504 0038 FFF7FEFF 		bl	ADC_DelSig_Start
 505              	.LVL59:
 138:main.c        ****     
 506              		.loc 1 138 0
 507 003c FFF7FEFF 		bl	ADC_DelSig_IRQ_Start
 508              	.LVL60:
 140:main.c        ****     
ARM GAS  C:\Users\aless\AppData\Local\Temp\ccn2Vog2.s 			page 18


 509              		.loc 1 140 0
 510 0040 FFF7FEFF 		bl	DMA_Config
 511              	.LVL61:
 145:main.c        ****     
 512              		.loc 1 145 0
 513 0044 8E4E     		ldr	r6, .L48
 514 0046 0DF1E601 		add	r1, sp, #230
 515 004a 3046     		mov	r0, r6
 516 004c FFF7FEFF 		bl	EEPROM_loadSettings
 517              	.LVL62:
 147:main.c        ****     UART_PutString(bufferUART);
 518              		.loc 1 147 0
 519 0050 3278     		ldrb	r2, [r6]	@ zero_extendqisi2
 520 0052 8C4C     		ldr	r4, .L48+4
 521 0054 BDF8E630 		ldrh	r3, [sp, #230]
 522 0058 8B49     		ldr	r1, .L48+8
 523 005a 2046     		mov	r0, r4
 524 005c FFF7FEFF 		bl	sprintf
 525              	.LVL63:
 148:main.c        ****     
 526              		.loc 1 148 0
 527 0060 2046     		mov	r0, r4
 528 0062 FFF7FEFF 		bl	UART_PutString
 529              	.LVL64:
 150:main.c        ****     
 530              		.loc 1 150 0
 531 0066 894F     		ldr	r7, .L48+12
 532 0068 3846     		mov	r0, r7
 533 006a FFF7FEFF 		bl	UART_PutString
 534              	.LVL65:
 155:main.c        ****     
 535              		.loc 1 155 0
 536 006e 3078     		ldrb	r0, [r6]	@ zero_extendqisi2
 537 0070 874D     		ldr	r5, .L48+16
 538 0072 2946     		mov	r1, r5
 539 0074 FFF7FEFF 		bl	LIS3DH_unzipConfig
 540              	.LVL66:
 158:main.c        ****     UART_PutString(bufferUART);
 541              		.loc 1 158 0
 542 0078 2A78     		ldrb	r2, [r5]	@ zero_extendqisi2
 543 007a 6B78     		ldrb	r3, [r5, #1]	@ zero_extendqisi2
 544 007c A978     		ldrb	r1, [r5, #2]	@ zero_extendqisi2
 545 007e E878     		ldrb	r0, [r5, #3]	@ zero_extendqisi2
 546 0080 0190     		str	r0, [sp, #4]
 547 0082 0091     		str	r1, [sp]
 548 0084 8349     		ldr	r1, .L48+20
 549 0086 2046     		mov	r0, r4
 550 0088 FFF7FEFF 		bl	sprintf
 551              	.LVL67:
 159:main.c        ****     
 552              		.loc 1 159 0
 553 008c 2046     		mov	r0, r4
 554 008e FFF7FEFF 		bl	UART_PutString
 555              	.LVL68:
 161:main.c        ****     LIS3DH_setConfig(data_config); // set user-dependent settings
 556              		.loc 1 161 0
 557 0092 FFF7FEFF 		bl	LIS3DH_Init
ARM GAS  C:\Users\aless\AppData\Local\Temp\ccn2Vog2.s 			page 19


 558              	.LVL69:
 162:main.c        ****     
 559              		.loc 1 162 0
 560 0096 2846     		mov	r0, r5
 561 0098 FFF7FEFF 		bl	LIS3DH_setConfig
 562              	.LVL70:
 164:main.c        ****     
 563              		.loc 1 164 0
 564 009c 7E48     		ldr	r0, .L48+24
 565 009e FFF7FEFF 		bl	UART_PutString
 566              	.LVL71:
 166:main.c        ****     sprintf(bufferUART, "CTRL_REG3     = 0x%02x\r\n", reg_value);
 567              		.loc 1 166 0
 568 00a2 2220     		movs	r0, #34
 569 00a4 FFF7FEFF 		bl	LIS3DH_readByte
 570              	.LVL72:
 167:main.c        ****     UART_PutString(bufferUART);
 571              		.loc 1 167 0
 572 00a8 0246     		mov	r2, r0
 573 00aa 7C49     		ldr	r1, .L48+28
 574 00ac 2046     		mov	r0, r4
 575              	.LVL73:
 576 00ae FFF7FEFF 		bl	sprintf
 577              	.LVL74:
 168:main.c        **** 
 578              		.loc 1 168 0
 579 00b2 2046     		mov	r0, r4
 580 00b4 FFF7FEFF 		bl	UART_PutString
 581              	.LVL75:
 170:main.c        ****     sprintf(bufferUART, "CTRL_REG5     = 0x%02x\r\n", reg_value);
 582              		.loc 1 170 0
 583 00b8 2420     		movs	r0, #36
 584 00ba FFF7FEFF 		bl	LIS3DH_readByte
 585              	.LVL76:
 171:main.c        ****     UART_PutString(bufferUART);
 586              		.loc 1 171 0
 587 00be 0246     		mov	r2, r0
 588 00c0 7749     		ldr	r1, .L48+32
 589 00c2 2046     		mov	r0, r4
 590              	.LVL77:
 591 00c4 FFF7FEFF 		bl	sprintf
 592              	.LVL78:
 172:main.c        ****     
 593              		.loc 1 172 0
 594 00c8 2046     		mov	r0, r4
 595 00ca FFF7FEFF 		bl	UART_PutString
 596              	.LVL79:
 174:main.c        ****     sprintf(bufferUART, "FIFO_CTRL_REG = 0x%02x\r\n", reg_value);
 597              		.loc 1 174 0
 598 00ce 2E20     		movs	r0, #46
 599 00d0 FFF7FEFF 		bl	LIS3DH_readByte
 600              	.LVL80:
 175:main.c        ****     UART_PutString(bufferUART);
 601              		.loc 1 175 0
 602 00d4 0246     		mov	r2, r0
 603 00d6 7349     		ldr	r1, .L48+36
 604 00d8 2046     		mov	r0, r4
ARM GAS  C:\Users\aless\AppData\Local\Temp\ccn2Vog2.s 			page 20


 605              	.LVL81:
 606 00da FFF7FEFF 		bl	sprintf
 607              	.LVL82:
 176:main.c        ****     
 608              		.loc 1 176 0
 609 00de 2046     		mov	r0, r4
 610 00e0 FFF7FEFF 		bl	UART_PutString
 611              	.LVL83:
 178:main.c        ****     sprintf(bufferUART, "CTRL_REG1     = 0x%02x\r\n", reg_value);
 612              		.loc 1 178 0
 613 00e4 2020     		movs	r0, #32
 614 00e6 FFF7FEFF 		bl	LIS3DH_readByte
 615              	.LVL84:
 179:main.c        ****     UART_PutString(bufferUART);
 616              		.loc 1 179 0
 617 00ea 0246     		mov	r2, r0
 618 00ec 6E49     		ldr	r1, .L48+40
 619 00ee 2046     		mov	r0, r4
 620              	.LVL85:
 621 00f0 FFF7FEFF 		bl	sprintf
 622              	.LVL86:
 180:main.c        ****     
 623              		.loc 1 180 0
 624 00f4 2046     		mov	r0, r4
 625 00f6 FFF7FEFF 		bl	UART_PutString
 626              	.LVL87:
 182:main.c        ****     sprintf(bufferUART, "CTRL_REG4     = 0x%02x\r\n", reg_value);
 627              		.loc 1 182 0
 628 00fa 2320     		movs	r0, #35
 629 00fc FFF7FEFF 		bl	LIS3DH_readByte
 630              	.LVL88:
 183:main.c        ****     UART_PutString(bufferUART);
 631              		.loc 1 183 0
 632 0100 0246     		mov	r2, r0
 633 0102 6A49     		ldr	r1, .L48+44
 634 0104 2046     		mov	r0, r4
 635              	.LVL89:
 636 0106 FFF7FEFF 		bl	sprintf
 637              	.LVL90:
 184:main.c        ****     
 638              		.loc 1 184 0
 639 010a 2046     		mov	r0, r4
 640 010c FFF7FEFF 		bl	UART_PutString
 641              	.LVL91:
 186:main.c        ****     
 642              		.loc 1 186 0
 643 0110 3846     		mov	r0, r7
 644 0112 FFF7FEFF 		bl	UART_PutString
 645              	.LVL92:
 191:main.c        ****     isr_TIMER_ADC_StartEx(Custom_ISR_TIMER);    // ISR on SOC
 646              		.loc 1 191 0
 647 0116 6648     		ldr	r0, .L48+48
 648 0118 FFF7FEFF 		bl	isr_RX_StartEx
 649              	.LVL93:
 192:main.c        ****     isr_INT_StartEx(Custom_ISR_OVRN);           // enable ISR from LIS3DH in the µC
 650              		.loc 1 192 0
 651 011c 6548     		ldr	r0, .L48+52
ARM GAS  C:\Users\aless\AppData\Local\Temp\ccn2Vog2.s 			page 21


 652 011e FFF7FEFF 		bl	isr_TIMER_ADC_StartEx
 653              	.LVL94:
 193:main.c        ****     isr_DMA_StartEx(Custom_ISR_DMA);            // ISR every 32 EOC
 654              		.loc 1 193 0
 655 0122 6548     		ldr	r0, .L48+56
 656 0124 FFF7FEFF 		bl	isr_INT_StartEx
 657              	.LVL95:
 194:main.c        ****     isr_STREAM_StartEx(Custom_ISR_STREAM);      // enable ISR for streaming data
 658              		.loc 1 194 0
 659 0128 6448     		ldr	r0, .L48+60
 660 012a FFF7FEFF 		bl	isr_DMA_StartEx
 661              	.LVL96:
 195:main.c        ****     isr_INDEX_StartEx(Custom_ISR_INDEX);        // ISR INDEX (5s)
 662              		.loc 1 195 0
 663 012e 6448     		ldr	r0, .L48+64
 664 0130 FFF7FEFF 		bl	isr_STREAM_StartEx
 665              	.LVL97:
 196:main.c        ****     isr_RESET_StartEx(Custom_ISR_RESET);        // ISR RESET (10s)
 666              		.loc 1 196 0
 667 0134 6348     		ldr	r0, .L48+68
 668 0136 FFF7FEFF 		bl	isr_INDEX_StartEx
 669              	.LVL98:
 197:main.c        ****     
 670              		.loc 1 197 0
 671 013a 6348     		ldr	r0, .L48+72
 672 013c FFF7FEFF 		bl	isr_RESET_StartEx
 673              	.LVL99:
 201:main.c        ****         // Start ISR from LIS3DH
 674              		.loc 1 201 0
 675 0140 3378     		ldrb	r3, [r6]	@ zero_extendqisi2
 676 0142 13F0200F 		tst	r3, #32
 677 0146 08D0     		beq	.L24
 203:main.c        ****         //Analog sensor
 678              		.loc 1 203 0
 679 0148 2846     		mov	r0, r5
 680 014a FFF7FEFF 		bl	LIS3DH_setConfig
 681              	.LVL100:
 205:main.c        ****         // Start ADC and built-in LED
 682              		.loc 1 205 0
 683 014e A878     		ldrb	r0, [r5, #2]	@ zero_extendqisi2
 684 0150 FFF7FEFF 		bl	AMux_Select
 685              	.LVL101:
 207:main.c        ****     }
 686              		.loc 1 207 0
 687 0154 2846     		mov	r0, r5
 688 0156 FFF7FEFF 		bl	startSampling
 689              	.LVL102:
 690              	.L24:
 211:main.c        ****     
 691              		.loc 1 211 0
 692 015a FFF7FEFF 		bl	ShowMenu
 693              	.LVL103:
 213:main.c        ****     
 694              		.loc 1 213 0
 695 015e 01E0     		b	.L25
 696              	.L26:
 213:main.c        ****     
ARM GAS  C:\Users\aless\AppData\Local\Temp\ccn2Vog2.s 			page 22


 697              		.loc 1 213 0 is_stmt 0 discriminator 2
 698 0160 FFF7FEFF 		bl	UART_GetChar
 699              	.LVL104:
 700              	.L25:
 213:main.c        ****     
 701              		.loc 1 213 0 discriminator 1
 702 0164 FFF7FEFF 		bl	UART_GetRxBufferSize
 703              	.LVL105:
 704 0168 0028     		cmp	r0, #0
 705 016a F9D1     		bne	.L26
 706 016c 0027     		movs	r7, #0
 707 016e 4FF00708 		mov	r8, #7
 708 0172 01E0     		b	.L27
 709              	.LVL106:
 710              	.L28:
 217:main.c        ****         
 711              		.loc 1 217 0 is_stmt 1 discriminator 2
 712 0174 FFF7FEFF 		bl	UART_GetChar
 713              	.LVL107:
 714              	.L27:
 217:main.c        ****         
 715              		.loc 1 217 0 is_stmt 0 discriminator 1
 716 0178 FFF7FEFF 		bl	UART_GetRxBufferSize
 717              	.LVL108:
 718 017c 0028     		cmp	r0, #0
 719 017e F9D1     		bne	.L28
 220:main.c        ****             
 720              		.loc 1 220 0 is_stmt 1
 721 0180 524B     		ldr	r3, .L48+76
 722 0182 1B78     		ldrb	r3, [r3]	@ zero_extendqisi2
 723 0184 0BB3     		cbz	r3, .L29
 220:main.c        ****             
 724              		.loc 1 220 0 is_stmt 0 discriminator 1
 725 0186 514B     		ldr	r3, .L48+76
 726 0188 5B78     		ldrb	r3, [r3, #1]	@ zero_extendqisi2
 727 018a F3B1     		cbz	r3, .L29
 222:main.c        ****             cfg_reg = LIS3DH_zipConfig(data_config); // generate new settings
 728              		.loc 1 222 0 is_stmt 1
 729 018c 3C4C     		ldr	r4, .L48
 730 018e 2378     		ldrb	r3, [r4]	@ zero_extendqisi2
 731 0190 4F4D     		ldr	r5, .L48+80
 732 0192 2B70     		strb	r3, [r5]
 223:main.c        ****             
 733              		.loc 1 223 0
 734 0194 3E48     		ldr	r0, .L48+16
 735 0196 FFF7FEFF 		bl	LIS3DH_zipConfig
 736              	.LVL109:
 737 019a 2070     		strb	r0, [r4]
 225:main.c        ****                 
 738              		.loc 1 225 0
 739 019c 2A78     		ldrb	r2, [r5]	@ zero_extendqisi2
 740 019e 2378     		ldrb	r3, [r4]	@ zero_extendqisi2
 741 01a0 DBB2     		uxtb	r3, r3
 742 01a2 9A42     		cmp	r2, r3
 743 01a4 08D0     		beq	.L30
 227:main.c        ****                 // Store new config in EEPROM
 744              		.loc 1 227 0
ARM GAS  C:\Users\aless\AppData\Local\Temp\ccn2Vog2.s 			page 23


 745 01a6 3A48     		ldr	r0, .L48+16
 746 01a8 0023     		movs	r3, #0
 747 01aa C370     		strb	r3, [r0, #3]
 229:main.c        ****                 update_cfg_reg = 1; // ask to save settings
 748              		.loc 1 229 0
 749 01ac FFF7FEFF 		bl	LIS3DH_zipConfig
 750              	.LVL110:
 751 01b0 2070     		strb	r0, [r4]
 230:main.c        ****             }
 752              		.loc 1 230 0
 753 01b2 0122     		movs	r2, #1
 754 01b4 474B     		ldr	r3, .L48+84
 755 01b6 1A70     		strb	r2, [r3]
 756              	.L30:
 233:main.c        ****             ShowMenu();
 757              		.loc 1 233 0
 758 01b8 0C20     		movs	r0, #12
 759 01ba FFF7FEFF 		bl	UART_PutChar
 760              	.LVL111:
 234:main.c        ****             
 761              		.loc 1 234 0
 762 01be FFF7FEFF 		bl	ShowMenu
 763              	.LVL112:
 237:main.c        ****             configSets[1]=0;
 764              		.loc 1 237 0
 765 01c2 424B     		ldr	r3, .L48+76
 766 01c4 0022     		movs	r2, #0
 767 01c6 1A70     		strb	r2, [r3]
 238:main.c        ****         }
 768              		.loc 1 238 0
 769 01c8 5A70     		strb	r2, [r3, #1]
 770              	.L29:
 242:main.c        ****             EEPROM_writeByte(CFG_REG, cfg_reg); // store settings in EEPROM
 771              		.loc 1 242 0
 772 01ca 424B     		ldr	r3, .L48+84
 773 01cc 1B78     		ldrb	r3, [r3]	@ zero_extendqisi2
 774 01ce 424A     		ldr	r2, .L48+88
 775 01d0 1278     		ldrb	r2, [r2]	@ zero_extendqisi2
 776 01d2 12F0FF0F 		tst	r2, #255
 777 01d6 03F00103 		and	r3, r3, #1
 778 01da 18BF     		it	ne
 779 01dc 0023     		movne	r3, #0
 780 01de 3F4A     		ldr	r2, .L48+92
 781 01e0 1278     		ldrb	r2, [r2]	@ zero_extendqisi2
 782 01e2 12F0FF0F 		tst	r2, #255
 783 01e6 03F00103 		and	r3, r3, #1
 784 01ea 18BF     		it	ne
 785 01ec 0023     		movne	r3, #0
 786 01ee 002B     		cmp	r3, #0
 787 01f0 00F09780 		beq	.L31
 243:main.c        ****             EEPROM_waitForWriteComplete();
 788              		.loc 1 243 0
 789 01f4 224C     		ldr	r4, .L48
 790 01f6 2178     		ldrb	r1, [r4]	@ zero_extendqisi2
 791 01f8 0220     		movs	r0, #2
 792 01fa FFF7FEFF 		bl	EEPROM_writeByte
 793              	.LVL113:
ARM GAS  C:\Users\aless\AppData\Local\Temp\ccn2Vog2.s 			page 24


 244:main.c        ****             
 794              		.loc 1 244 0
 795 01fe FFF7FEFF 		bl	EEPROM_waitForWriteComplete
 796              	.LVL114:
 246:main.c        ****             
 797              		.loc 1 246 0
 798 0202 2078     		ldrb	r0, [r4]	@ zero_extendqisi2
 799 0204 224D     		ldr	r5, .L48+16
 800 0206 2946     		mov	r1, r5
 801 0208 FFF7FEFF 		bl	LIS3DH_unzipConfig
 802              	.LVL115:
 248:main.c        ****             // Start/Stop ISR from LIS3DH
 803              		.loc 1 248 0
 804 020c FFF7FEFF 		bl	LIS3DH_Init
 805              	.LVL116:
 250:main.c        ****             
 806              		.loc 1 250 0
 807 0210 2846     		mov	r0, r5
 808 0212 FFF7FEFF 		bl	LIS3DH_setConfig
 809              	.LVL117:
 253:main.c        ****             
 810              		.loc 1 253 0
 811 0216 A878     		ldrb	r0, [r5, #2]	@ zero_extendqisi2
 812 0218 FFF7FEFF 		bl	AMux_Select
 813              	.LVL118:
 255:main.c        ****                 startSampling(data_config);
 814              		.loc 1 255 0
 815 021c 2378     		ldrb	r3, [r4]	@ zero_extendqisi2
 816 021e 13F0200F 		tst	r3, #32
 817 0222 05D0     		beq	.L32
 255:main.c        ****                 startSampling(data_config);
 818              		.loc 1 255 0 is_stmt 0 discriminator 1
 819 0224 FFF7FEFF 		bl	Timer_ADC_ReadControlRegister
 820              	.LVL119:
 821 0228 10B9     		cbnz	r0, .L32
 256:main.c        ****             }
 822              		.loc 1 256 0 is_stmt 1
 823 022a 2846     		mov	r0, r5
 824 022c FFF7FEFF 		bl	startSampling
 825              	.LVL120:
 826              	.L32:
 258:main.c        ****                 Timer_ADC_ReadStatusRegister();
 827              		.loc 1 258 0
 828 0230 134B     		ldr	r3, .L48
 829 0232 1B78     		ldrb	r3, [r3]	@ zero_extendqisi2
 830 0234 13F0200F 		tst	r3, #32
 831 0238 6BD1     		bne	.L33
 258:main.c        ****                 Timer_ADC_ReadStatusRegister();
 832              		.loc 1 258 0 is_stmt 0 discriminator 1
 833 023a FFF7FEFF 		bl	Timer_ADC_ReadControlRegister
 834              	.LVL121:
 835 023e 0028     		cmp	r0, #0
 836 0240 67D0     		beq	.L33
 259:main.c        ****                 Timer_ADC_Stop();               //Stop ADC
 837              		.loc 1 259 0 is_stmt 1
 838 0242 FFF7FEFF 		bl	Timer_ADC_ReadStatusRegister
 839              	.LVL122:
ARM GAS  C:\Users\aless\AppData\Local\Temp\ccn2Vog2.s 			page 25


 260:main.c        ****                 
 840              		.loc 1 260 0
 841 0246 FFF7FEFF 		bl	Timer_ADC_Stop
 842              	.LVL123:
 262:main.c        ****                 PWM_BLINK_WriteCompare(0);
 843              		.loc 1 262 0
 844 024a 0020     		movs	r0, #0
 845 024c FFF7FEFF 		bl	PWM_BLINK_WritePeriod
 846              	.LVL124:
 263:main.c        ****                 
 847              		.loc 1 263 0
 848 0250 0020     		movs	r0, #0
 849 0252 FFF7FEFF 		bl	PWM_BLINK_WriteCompare
 850              	.LVL125:
 265:main.c        ****                 indexEEPROM = DATA_START;       // bring index back to start
 851              		.loc 1 265 0
 852 0256 BDF8E680 		ldrh	r8, [sp, #230]
 853              	.LVL126:
 266:main.c        ****                 
 854              		.loc 1 266 0
 855 025a 6CA9     		add	r1, sp, #432
 856 025c 0723     		movs	r3, #7
 857 025e 21F8CA3D 		strh	r3, [r1, #-202]!	@ movhi
 269:main.c        ****                 EEPROM_waitForWriteComplete();
 858              		.loc 1 269 0
 859 0262 0222     		movs	r2, #2
 860 0264 0020     		movs	r0, #0
 861 0266 FFF7FEFF 		bl	EEPROM_writePage
 862              	.LVL127:
 270:main.c        ****                 
 863              		.loc 1 270 0
 864 026a FFF7FEFF 		bl	EEPROM_waitForWriteComplete
 865              	.LVL128:
 272:main.c        ****                     PWM_BLINK_WritePeriod(49);
 866              		.loc 1 272 0
 867 026e BFB3     		cbz	r7, .L34
 273:main.c        ****                     PWM_BLINK_WriteCompare(25);
 868              		.loc 1 273 0
 869 0270 3120     		movs	r0, #49
 870 0272 FFF7FEFF 		bl	PWM_BLINK_WritePeriod
 871              	.LVL129:
 274:main.c        ****                 }
 872              		.loc 1 274 0
 873 0276 1920     		movs	r0, #25
 874 0278 FFF7FEFF 		bl	PWM_BLINK_WriteCompare
 875              	.LVL130:
 876 027c 36E0     		b	.L35
 877              	.L49:
 878 027e 00BF     		.align	2
 879              	.L48:
 880 0280 00000000 		.word	cfg_reg
 881 0284 00000000 		.word	bufferUART
 882 0288 00000000 		.word	.LC2
 883 028c 38000000 		.word	.LC3
 884 0290 00000000 		.word	data_config
 885 0294 60000000 		.word	.LC4
 886 0298 B8000000 		.word	.LC5
ARM GAS  C:\Users\aless\AppData\Local\Temp\ccn2Vog2.s 			page 26


 887 029c CC000000 		.word	.LC6
 888 02a0 E8000000 		.word	.LC7
 889 02a4 04010000 		.word	.LC8
 890 02a8 20010000 		.word	.LC9
 891 02ac 3C010000 		.word	.LC10
 892 02b0 00000000 		.word	Custom_ISR_RX
 893 02b4 00000000 		.word	Custom_ISR_TIMER
 894 02b8 00000000 		.word	Custom_ISR_OVRN
 895 02bc 00000000 		.word	Custom_ISR_DMA
 896 02c0 00000000 		.word	Custom_ISR_STREAM
 897 02c4 00000000 		.word	Custom_ISR_INDEX
 898 02c8 00000000 		.word	Custom_ISR_RESET
 899 02cc 00000000 		.word	configSets
 900 02d0 00000000 		.word	cfg_reg_old
 901 02d4 00000000 		.word	.LANCHOR1
 902 02d8 00000000 		.word	dataReady_FIFO
 903 02dc 00000000 		.word	dataReady_DMA
 904              	.L34:
 277:main.c        ****                     PWM_BLINK_WriteCompare(0);
 905              		.loc 1 277 0
 906 02e0 0020     		movs	r0, #0
 907 02e2 FFF7FEFF 		bl	PWM_BLINK_WritePeriod
 908              	.LVL131:
 278:main.c        ****                 }
 909              		.loc 1 278 0
 910 02e6 0020     		movs	r0, #0
 911 02e8 FFF7FEFF 		bl	PWM_BLINK_WriteCompare
 912              	.LVL132:
 913              	.L35:
 281:main.c        ****                 CyDelay(5);
 914              		.loc 1 281 0
 915 02ec FFF7FEFF 		bl	LIS3DH_Init
 916              	.LVL133:
 282:main.c        ****                 LIS3DH_readByte(INT1_SRC);
 917              		.loc 1 282 0
 918 02f0 0520     		movs	r0, #5
 919 02f2 FFF7FEFF 		bl	CyDelay
 920              	.LVL134:
 283:main.c        ****                 Timer_ADC_ReadStatusRegister();
 921              		.loc 1 283 0
 922 02f6 3120     		movs	r0, #49
 923 02f8 FFF7FEFF 		bl	LIS3DH_readByte
 924              	.LVL135:
 284:main.c        ****                 isr_DMA_ClearPending();
 925              		.loc 1 284 0
 926 02fc FFF7FEFF 		bl	Timer_ADC_ReadStatusRegister
 927              	.LVL136:
 285:main.c        ****                 isr_INT_ClearPending();
 928              		.loc 1 285 0
 929 0300 FFF7FEFF 		bl	isr_DMA_ClearPending
 930              	.LVL137:
 286:main.c        ****                 dataReady_DMA = 0;
 931              		.loc 1 286 0
 932 0304 FFF7FEFF 		bl	isr_INT_ClearPending
 933              	.LVL138:
 287:main.c        ****                 dataReady_FIFO = 0;
 934              		.loc 1 287 0
ARM GAS  C:\Users\aless\AppData\Local\Temp\ccn2Vog2.s 			page 27


 935 0308 0027     		movs	r7, #0
 936              	.LVL139:
 937 030a 684B     		ldr	r3, .L50
 938 030c 1F70     		strb	r7, [r3]
 288:main.c        ****                 memoryFull = 0;
 939              		.loc 1 288 0
 940 030e 684B     		ldr	r3, .L50+4
 941 0310 1F70     		strb	r7, [r3]
 942              	.LVL140:
 943              	.L33:
 293:main.c        ****             ShowMenu();
 944              		.loc 1 293 0
 945 0312 0C20     		movs	r0, #12
 946 0314 FFF7FEFF 		bl	UART_PutChar
 947              	.LVL141:
 294:main.c        ****             // Exit config mode
 948              		.loc 1 294 0
 949 0318 FFF7FEFF 		bl	ShowMenu
 950              	.LVL142:
 296:main.c        ****         }
 951              		.loc 1 296 0
 952 031c 0022     		movs	r2, #0
 953 031e 654B     		ldr	r3, .L50+8
 954 0320 1A70     		strb	r2, [r3]
 955              	.L31:
 300:main.c        ****             
 956              		.loc 1 300 0
 957 0322 654B     		ldr	r3, .L50+12
 958 0324 1B78     		ldrb	r3, [r3]	@ zero_extendqisi2
 959 0326 624A     		ldr	r2, .L50+4
 960 0328 1278     		ldrb	r2, [r2]	@ zero_extendqisi2
 961 032a 12F0FF0F 		tst	r2, #255
 962 032e 03F00103 		and	r3, r3, #1
 963 0332 18BF     		it	ne
 964 0334 0023     		movne	r3, #0
 965 0336 5D4A     		ldr	r2, .L50
 966 0338 1278     		ldrb	r2, [r2]	@ zero_extendqisi2
 967 033a 12F0FF0F 		tst	r2, #255
 968 033e 03F00103 		and	r3, r3, #1
 969 0342 18BF     		it	ne
 970 0344 0023     		movne	r3, #0
 971 0346 002B     		cmp	r3, #0
 972 0348 40D0     		beq	.L36
 302:main.c        ****                 indexSTREAM  = DATA_START;
 973              		.loc 1 302 0
 974 034a 5C4B     		ldr	r3, .L50+16
 975 034c 1B88     		ldrh	r3, [r3]
 976 034e 9BB2     		uxth	r3, r3
 977 0350 9845     		cmp	r8, r3
 978 0352 0ED8     		bhi	.L37
 979              	.LBB3:
 303:main.c        ****                 // show beginning/end of acquisition (all values go to 10)
 980              		.loc 1 303 0
 981 0354 0722     		movs	r2, #7
 982 0356 594B     		ldr	r3, .L50+16
 983 0358 1A80     		strh	r2, [r3]	@ movhi
 305:main.c        ****                 UART_Debug_BCP(temp, 8, HEAD, TAIL);
ARM GAS  C:\Users\aless\AppData\Local\Temp\ccn2Vog2.s 			page 28


 984              		.loc 1 305 0
 985 035a 03AB     		add	r3, sp, #12
 986 035c 584A     		ldr	r2, .L50+20
 987 035e 52F80C0F 		ldr	r0, [r2, #12]!	@ unaligned
 988 0362 5168     		ldr	r1, [r2, #4]	@ unaligned
 989 0364 03C3     		stmia	r3!, {r0, r1}
 306:main.c        ****             }
 990              		.loc 1 306 0
 991 0366 C023     		movs	r3, #192
 992 0368 A022     		movs	r2, #160
 993 036a 0821     		movs	r1, #8
 994 036c 03A8     		add	r0, sp, #12
 995 036e FFF7FEFF 		bl	UART_Debug_BCP
 996              	.LVL143:
 997              	.L37:
 998              	.LBE3:
 309:main.c        ****             DeCompressData(STREAMBufferIn, STREAMBufferOut);    // de-compress packet
 999              		.loc 1 309 0
 1000 0372 524B     		ldr	r3, .L50+16
 1001 0374 1888     		ldrh	r0, [r3]
 1002 0376 0622     		movs	r2, #6
 1003 0378 07A9     		add	r1, sp, #28
 1004 037a 80B2     		uxth	r0, r0
 1005 037c FFF7FEFF 		bl	EEPROM_readPage
 1006              	.LVL144:
 310:main.c        ****             SampledToBridge(STREAMBufferOut, dataSample);       // convert packet to physical quant
 1007              		.loc 1 310 0
 1008 0380 05A9     		add	r1, sp, #20
 1009 0382 07A8     		add	r0, sp, #28
 1010 0384 FFF7FEFF 		bl	DeCompressData
 1011              	.LVL145:
 311:main.c        ****             
 1012              		.loc 1 311 0
 1013 0388 3AA9     		add	r1, sp, #232
 1014 038a 05A8     		add	r0, sp, #20
 1015 038c FFF7FEFF 		bl	SampledToBridge
 1016              	.LVL146:
 314:main.c        ****             if (dataSample[3].sample > MAX)    dataSample[3].sample = MAX;
 1017              		.loc 1 314 0
 1018 0390 BDF9EE30 		ldrsh	r3, [sp, #238]
 1019 0394 002B     		cmp	r3, #0
 1020 0396 02DA     		bge	.L38
 314:main.c        ****             if (dataSample[3].sample > MAX)    dataSample[3].sample = MAX;
 1021              		.loc 1 314 0 is_stmt 0 discriminator 1
 1022 0398 0023     		movs	r3, #0
 1023 039a ADF8EE30 		strh	r3, [sp, #238]	@ movhi
 1024              	.L38:
 315:main.c        ****             
 1025              		.loc 1 315 0 is_stmt 1
 1026 039e BDF9EE20 		ldrsh	r2, [sp, #238]
 1027 03a2 41F28833 		movw	r3, #5000
 1028 03a6 9A42     		cmp	r2, r3
 1029 03a8 01DD     		ble	.L39
 315:main.c        ****             
 1030              		.loc 1 315 0 is_stmt 0 discriminator 1
 1031 03aa ADF8EE30 		strh	r3, [sp, #238]	@ movhi
 1032              	.L39:
ARM GAS  C:\Users\aless\AppData\Local\Temp\ccn2Vog2.s 			page 29


 318:main.c        ****             
 1033              		.loc 1 318 0 is_stmt 1
 1034 03ae C023     		movs	r3, #192
 1035 03b0 A022     		movs	r2, #160
 1036 03b2 0821     		movs	r1, #8
 1037 03b4 3AA8     		add	r0, sp, #232
 1038 03b6 FFF7FEFF 		bl	UART_Debug_BCP
 1039              	.LVL147:
 320:main.c        ****             
 1040              		.loc 1 320 0
 1041 03ba 404A     		ldr	r2, .L50+16
 1042 03bc 1388     		ldrh	r3, [r2]
 1043 03be 9BB2     		uxth	r3, r3
 1044 03c0 0633     		adds	r3, r3, #6
 1045 03c2 9BB2     		uxth	r3, r3
 1046 03c4 1380     		strh	r3, [r2]	@ movhi
 323:main.c        ****         }
 1047              		.loc 1 323 0
 1048 03c6 0022     		movs	r2, #0
 1049 03c8 3B4B     		ldr	r3, .L50+12
 1050 03ca 1A70     		strb	r2, [r3]
 1051              	.L36:
 327:main.c        ****             
 1052              		.loc 1 327 0
 1053 03cc 384B     		ldr	r3, .L50+4
 1054 03ce 1B78     		ldrb	r3, [r3]	@ zero_extendqisi2
 1055 03d0 364A     		ldr	r2, .L50
 1056 03d2 1278     		ldrb	r2, [r2]	@ zero_extendqisi2
 1057 03d4 1340     		ands	r3, r3, r2
 1058 03d6 87F00102 		eor	r2, r7, #1
 1059 03da 1342     		tst	r3, r2
 1060 03dc 3FF4CCAE 		beq	.L27
 330:main.c        ****             
 1061              		.loc 1 330 0
 1062 03e0 3120     		movs	r0, #49
 1063 03e2 FFF7FEFF 		bl	LIS3DH_readByte
 1064              	.LVL148:
 333:main.c        ****             
 1065              		.loc 1 333 0
 1066 03e6 FFF7FEFF 		bl	LIS3DH_readStatus
 1067              	.LVL149:
 337:main.c        ****             
 1068              		.loc 1 337 0
 1069 03ea 00F05F03 		and	r3, r0, #95
 1070 03ee 5F2B     		cmp	r3, #95
 1071 03f0 06D0     		beq	.L46
 337:main.c        ****             
 1072              		.loc 1 337 0 is_stmt 0 discriminator 1
 1073 03f2 00F01F00 		and	r0, r0, #31
 1074              	.LVL150:
 1075 03f6 00EB4000 		add	r0, r0, r0, lsl #1
 1076 03fa 4600     		lsls	r6, r0, #1
 1077 03fc F6B2     		uxtb	r6, r6
 1078 03fe 00E0     		b	.L41
 1079              	.LVL151:
 1080              	.L46:
 337:main.c        ****             
ARM GAS  C:\Users\aless\AppData\Local\Temp\ccn2Vog2.s 			page 30


 1081              		.loc 1 337 0
 1082 0400 C026     		movs	r6, #192
 1083              	.LVL152:
 1084              	.L41:
 340:main.c        ****             LIS3DH_readPage(OUT_X_L, &dataFIFO[96], 96);
 1085              		.loc 1 340 0 is_stmt 1 discriminator 4
 1086 0402 6022     		movs	r2, #96
 1087 0404 3CA9     		add	r1, sp, #240
 1088 0406 2820     		movs	r0, #40
 1089 0408 FFF7FEFF 		bl	LIS3DH_readPage
 1090              	.LVL153:
 341:main.c        ****             
 1091              		.loc 1 341 0 discriminator 4
 1092 040c 6022     		movs	r2, #96
 1093 040e 54A9     		add	r1, sp, #336
 1094 0410 2820     		movs	r0, #40
 1095 0412 FFF7FEFF 		bl	LIS3DH_readPage
 1096              	.LVL154:
 344:main.c        ****             
 1097              		.loc 1 344 0 discriminator 4
 1098 0416 09AB     		add	r3, sp, #36
 1099 0418 3246     		mov	r2, r6
 1100 041a 2A49     		ldr	r1, .L50+24
 1101 041c 3CA8     		add	r0, sp, #240
 1102 041e FFF7FEFF 		bl	CompressData
 1103              	.LVL155:
 335:main.c        ****             // From LIS3DH application note (2/3 * 3/2)
 1104              		.loc 1 335 0 discriminator 4
 1105 0422 0025     		movs	r5, #0
 347:main.c        ****                 toNextPage = (indexEEPROM/SPI_EEPROM_PAGE_SIZE+1)*SPI_EEPROM_PAGE_SIZE - indexEEPRO
 1106              		.loc 1 347 0 discriminator 4
 1107 0424 1BE0     		b	.L42
 1108              	.LVL156:
 1109              	.L44:
 348:main.c        ****                 nBytes = (toNextPage > (sizeEEPROMBuffer-indexEEPROMbuffer) ? (sizeEEPROMBuffer-ind
 1110              		.loc 1 348 0
 1111 0426 9A09     		lsrs	r2, r3, #6
 1112 0428 0132     		adds	r2, r2, #1
 1113 042a C3EB8213 		rsb	r3, r3, r2, lsl #6
 1114 042e DBB2     		uxtb	r3, r3
 1115              	.LVL157:
 349:main.c        ****                 EEPROM_waitForWriteComplete();
 1116              		.loc 1 349 0
 1117 0430 741B     		subs	r4, r6, r5
 1118 0432 A342     		cmp	r3, r4
 1119 0434 A8BF     		it	ge
 1120 0436 2346     		movge	r3, r4
 1121              	.LVL158:
 1122 0438 DCB2     		uxtb	r4, r3
 1123              	.LVL159:
 350:main.c        ****                 EEPROM_writePage(indexEEPROM, (EEPROMBuffer+indexEEPROMbuffer), nBytes);
 1124              		.loc 1 350 0
 1125 043a FFF7FEFF 		bl	EEPROM_waitForWriteComplete
 1126              	.LVL160:
 351:main.c        ****                 EEPROM_waitForWriteComplete();
 1127              		.loc 1 351 0
 1128 043e 2246     		mov	r2, r4
ARM GAS  C:\Users\aless\AppData\Local\Temp\ccn2Vog2.s 			page 31


 1129 0440 09AB     		add	r3, sp, #36
 1130 0442 5919     		adds	r1, r3, r5
 1131 0444 BDF8E600 		ldrh	r0, [sp, #230]
 1132 0448 FFF7FEFF 		bl	EEPROM_writePage
 1133              	.LVL161:
 352:main.c        ****                 
 1134              		.loc 1 352 0
 1135 044c FFF7FEFF 		bl	EEPROM_waitForWriteComplete
 1136              	.LVL162:
 354:main.c        ****                 indexEEPROM += nBytes;
 1137              		.loc 1 354 0
 1138 0450 2544     		add	r5, r5, r4
 1139              	.LVL163:
 1140 0452 EDB2     		uxtb	r5, r5
 1141              	.LVL164:
 355:main.c        ****             }
 1142              		.loc 1 355 0
 1143 0454 BDF8E630 		ldrh	r3, [sp, #230]
 1144 0458 1C44     		add	r4, r4, r3
 1145              	.LVL165:
 1146 045a ADF8E640 		strh	r4, [sp, #230]	@ movhi
 1147              	.LVL166:
 1148              	.L42:
 347:main.c        ****                 toNextPage = (indexEEPROM/SPI_EEPROM_PAGE_SIZE+1)*SPI_EEPROM_PAGE_SIZE - indexEEPRO
 1149              		.loc 1 347 0
 1150 045e B542     		cmp	r5, r6
 1151 0460 05D2     		bcs	.L43
 347:main.c        ****                 toNextPage = (indexEEPROM/SPI_EEPROM_PAGE_SIZE+1)*SPI_EEPROM_PAGE_SIZE - indexEEPRO
 1152              		.loc 1 347 0 is_stmt 0 discriminator 1
 1153 0462 BDF8E630 		ldrh	r3, [sp, #230]
 1154 0466 47F6FE72 		movw	r2, #32766
 1155 046a 9342     		cmp	r3, r2
 1156 046c DBD9     		bls	.L44
 1157              	.L43:
 359:main.c        ****             EEPROM_waitForWriteComplete();
 1158              		.loc 1 359 0 is_stmt 1
 1159 046e 0222     		movs	r2, #2
 1160 0470 0DF1E601 		add	r1, sp, #230
 1161 0474 0020     		movs	r0, #0
 1162 0476 FFF7FEFF 		bl	EEPROM_writePage
 1163              	.LVL167:
 360:main.c        ****             
 1164              		.loc 1 360 0
 1165 047a FFF7FEFF 		bl	EEPROM_waitForWriteComplete
 1166              	.LVL168:
 362:main.c        ****                 memoryFull = 1;
 1167              		.loc 1 362 0
 1168 047e BDF9E630 		ldrsh	r3, [sp, #230]
 1169 0482 002B     		cmp	r3, #0
 1170 0484 0ADA     		bge	.L45
 362:main.c        ****                 memoryFull = 1;
 1171              		.loc 1 362 0 is_stmt 0 discriminator 1
 1172 0486 4FB9     		cbnz	r7, .L45
 1173              	.LVL169:
 364:main.c        ****                 cfg_reg = LIS3DH_zipConfig(data_config);
 1174              		.loc 1 364 0 is_stmt 1
 1175 0488 0F48     		ldr	r0, .L50+28
ARM GAS  C:\Users\aless\AppData\Local\Temp\ccn2Vog2.s 			page 32


 1176 048a 0023     		movs	r3, #0
 1177 048c C370     		strb	r3, [r0, #3]
 365:main.c        ****                 update_cfg_reg = 1; // write on EEPROM new config
 1178              		.loc 1 365 0
 1179 048e FFF7FEFF 		bl	LIS3DH_zipConfig
 1180              	.LVL170:
 1181 0492 0E4B     		ldr	r3, .L50+32
 1182 0494 1870     		strb	r0, [r3]
 366:main.c        ****             }
 1183              		.loc 1 366 0
 1184 0496 0127     		movs	r7, #1
 1185 0498 064B     		ldr	r3, .L50+8
 1186 049a 1F70     		strb	r7, [r3]
 1187              	.LVL171:
 1188              	.L45:
 369:main.c        ****             dataReady_DMA = 0;  // acknowledge DMA
 1189              		.loc 1 369 0
 1190 049c 0023     		movs	r3, #0
 1191 049e 044A     		ldr	r2, .L50+4
 1192 04a0 1370     		strb	r3, [r2]
 370:main.c        ****             Timer_ADC_Start();
 1193              		.loc 1 370 0
 1194 04a2 024A     		ldr	r2, .L50
 1195 04a4 1370     		strb	r3, [r2]
 371:main.c        ****         }
 1196              		.loc 1 371 0
 1197 04a6 FFF7FEFF 		bl	Timer_ADC_Start
 1198              	.LVL172:
 1199 04aa 65E6     		b	.L27
 1200              	.L51:
 1201              		.align	2
 1202              	.L50:
 1203 04ac 00000000 		.word	dataReady_DMA
 1204 04b0 00000000 		.word	dataReady_FIFO
 1205 04b4 00000000 		.word	.LANCHOR1
 1206 04b8 00000000 		.word	dataReady_STREAM
 1207 04bc 00000000 		.word	.LANCHOR2
 1208 04c0 00000000 		.word	.LANCHOR0
 1209 04c4 00000000 		.word	ADCBuffer
 1210 04c8 00000000 		.word	data_config
 1211 04cc 00000000 		.word	cfg_reg
 1212              		.cfi_endproc
 1213              	.LFE64:
 1214              		.size	main, .-main
 1215              		.global	Timer_Period
 1216              		.global	indexSTREAM
 1217              		.comm	data_config,4,4
 1218              		.comm	cfg_reg_old,1,1
 1219              		.global	update_cfg_reg
 1220              		.comm	cfg_reg,1,1
 1221              		.comm	bufferUART,200,4
 1222              		.comm	ADCBuffer,64,4
 1223              		.section	.rodata
 1224              		.align	2
 1225              		.set	.LANCHOR0,. + 0
 1226              	.LC1:
 1227 0000 04       		.byte	4
ARM GAS  C:\Users\aless\AppData\Local\Temp\ccn2Vog2.s 			page 33


 1228 0001 08       		.byte	8
 1229 0002 10       		.byte	16
 1230 0003 30       		.byte	48
 1231              		.type	Timer_Period, %object
 1232              		.size	Timer_Period, 8
 1233              	Timer_Period:
 1234 0004 E803     		.short	1000
 1235 0006 6400     		.short	100
 1236 0008 2800     		.short	40
 1237 000a 1400     		.short	20
 1238              	.LC0:
 1239 000c E8       		.byte	-24
 1240 000d 03       		.byte	3
 1241 000e E8       		.byte	-24
 1242 000f 03       		.byte	3
 1243 0010 E8       		.byte	-24
 1244 0011 03       		.byte	3
 1245 0012 10       		.byte	16
 1246 0013 27       		.byte	39
 1247              		.data
 1248              		.align	1
 1249              		.set	.LANCHOR2,. + 0
 1250              		.type	indexSTREAM, %object
 1251              		.size	indexSTREAM, 2
 1252              	indexSTREAM:
 1253 0000 0700     		.short	7
 1254              		.section	.rodata.str1.4,"aMS",%progbits,1
 1255              		.align	2
 1256              	.LC2:
 1257 0000 2A2A2045 		.ascii	"** EEPROM Read\015\012config_reg = 0x%02x\015\012in"
 1257      4550524F 
 1257      4D205265 
 1257      61640D0A 
 1257      636F6E66 
 1258 0027 64657845 		.ascii	"dexEEPROM = %d\015\012\000"
 1258      4550524F 
 1258      4D203D20 
 1258      25640D0A 
 1258      00
 1259              	.LC3:
 1260 0038 2A2A2A2A 		.ascii	"*************************************\015\012\000"
 1260      2A2A2A2A 
 1260      2A2A2A2A 
 1260      2A2A2A2A 
 1260      2A2A2A2A 
 1261              	.LC4:
 1262 0060 2A2A204C 		.ascii	"** LIS3DH Unzip\015\012FS     = 0x%02x\015\012FSR  "
 1262      49533344 
 1262      4820556E 
 1262      7A69700D 
 1262      0A465320 
 1263 0087 20203D20 		.ascii	"  = 0x%02x\015\012ANALOG = 0x%02x\015\012STATUS = 0"
 1263      30782530 
 1263      32780D0A 
 1263      414E414C 
 1263      4F47203D 
 1264 00ae 78253032 		.ascii	"x%02x\015\012\000"
ARM GAS  C:\Users\aless\AppData\Local\Temp\ccn2Vog2.s 			page 34


 1264      780D0A00 
 1265 00b6 0000     		.space	2
 1266              	.LC5:
 1267 00b8 2A2A204C 		.ascii	"** LIS3DH Read **\015\012\000"
 1267      49533344 
 1267      48205265 
 1267      6164202A 
 1267      2A0D0A00 
 1268              	.LC6:
 1269 00cc 4354524C 		.ascii	"CTRL_REG3     = 0x%02x\015\012\000"
 1269      5F524547 
 1269      33202020 
 1269      20203D20 
 1269      30782530 
 1270 00e5 000000   		.space	3
 1271              	.LC7:
 1272 00e8 4354524C 		.ascii	"CTRL_REG5     = 0x%02x\015\012\000"
 1272      5F524547 
 1272      35202020 
 1272      20203D20 
 1272      30782530 
 1273 0101 000000   		.space	3
 1274              	.LC8:
 1275 0104 4649464F 		.ascii	"FIFO_CTRL_REG = 0x%02x\015\012\000"
 1275      5F435452 
 1275      4C5F5245 
 1275      47203D20 
 1275      30782530 
 1276 011d 000000   		.space	3
 1277              	.LC9:
 1278 0120 4354524C 		.ascii	"CTRL_REG1     = 0x%02x\015\012\000"
 1278      5F524547 
 1278      31202020 
 1278      20203D20 
 1278      30782530 
 1279 0139 000000   		.space	3
 1280              	.LC10:
 1281 013c 4354524C 		.ascii	"CTRL_REG4     = 0x%02x\015\012\000"
 1281      5F524547 
 1281      34202020 
 1281      20203D20 
 1281      30782530 
 1282              		.bss
 1283              		.set	.LANCHOR1,. + 0
 1284              		.type	update_cfg_reg, %object
 1285              		.size	update_cfg_reg, 1
 1286              	update_cfg_reg:
 1287 0000 00       		.space	1
 1288              		.text
 1289              	.Letext0:
 1290              		.file 2 "c:\\program files (x86)\\cypress\\psoc creator\\4.3\\psoc creator\\import\\gnu\\arm\\5.4.
 1291              		.file 3 "c:\\program files (x86)\\cypress\\psoc creator\\4.3\\psoc creator\\import\\gnu\\arm\\5.4.
 1292              		.file 4 "Generated_Source\\PSoC5/cytypes.h"
 1293              		.file 5 "Generated_Source\\PSoC5/UART.h"
 1294              		.file 6 "Generated_Source\\PSoC5/core_cm3.h"
 1295              		.file 7 "DMARoutines.h"
 1296              		.file 8 "Generated_Source\\PSoC5/ADC_DelSig.h"
ARM GAS  C:\Users\aless\AppData\Local\Temp\ccn2Vog2.s 			page 35


 1297              		.file 9 "Generated_Source\\PSoC5/Timer_ADC.h"
 1298              		.file 10 "Generated_Source\\PSoC5/PWM_BLINK.h"
 1299              		.file 11 "Generated_Source\\PSoC5/CyLib.h"
 1300              		.file 12 "Generated_Source\\PSoC5/Counter_INDEX.h"
 1301              		.file 13 "Generated_Source\\PSoC5/Counter_RESET.h"
 1302              		.file 14 "Generated_Source\\PSoC5/SPIM_EEPROM.h"
 1303              		.file 15 "Generated_Source\\PSoC5/SPIM_LIS3DH.h"
 1304              		.file 16 "Generated_Source\\PSoC5/AMux.h"
 1305              		.file 17 "Generated_Source\\PSoC5/ADC_DelSig_IRQ.h"
 1306              		.file 18 "25LC256.h"
 1307              		.file 19 "c:\\program files (x86)\\cypress\\psoc creator\\4.3\\psoc creator\\import\\gnu\\arm\\5.4
 1308              		.file 20 "LIS3DH.h"
 1309              		.file 21 "Generated_Source\\PSoC5/isr_RX.h"
 1310              		.file 22 "Generated_Source\\PSoC5/isr_TIMER_ADC.h"
 1311              		.file 23 "Generated_Source\\PSoC5/isr_INT.h"
 1312              		.file 24 "Generated_Source\\PSoC5/isr_DMA.h"
 1313              		.file 25 "Generated_Source\\PSoC5/isr_STREAM.h"
 1314              		.file 26 "Generated_Source\\PSoC5/isr_INDEX.h"
 1315              		.file 27 "Generated_Source\\PSoC5/isr_RESET.h"
 1316              		.file 28 "InterruptRoutines.h"