ARM GAS  C:\Users\aless\AppData\Local\Temp\cceFS11t.s 			page 1


   1              		.syntax unified
   2              		.cpu cortex-m3
   3              		.fpu softvfp
   4              		.eabi_attribute 20, 1
   5              		.eabi_attribute 21, 1
   6              		.eabi_attribute 23, 3
   7              		.eabi_attribute 24, 1
   8              		.eabi_attribute 25, 1
   9              		.eabi_attribute 26, 1
  10              		.eabi_attribute 30, 1
  11              		.eabi_attribute 34, 1
  12              		.eabi_attribute 18, 4
  13              		.thumb
  14              		.syntax unified
  15              		.file	"SPI_Interface.c"
  16              		.text
  17              	.Ltext0:
  18              		.cfi_sections	.debug_frame
  19              		.section	.text.SPI_Interface_tradeByte_LIS3DH,"ax",%progbits
  20              		.align	2
  21              		.global	SPI_Interface_tradeByte_LIS3DH
  22              		.thumb
  23              		.thumb_func
  24              		.type	SPI_Interface_tradeByte_LIS3DH, %function
  25              	SPI_Interface_tradeByte_LIS3DH:
  26              	.LFB0:
  27              		.file 1 "SPI_Interface.c"
   1:SPI_Interface.c **** /* ========================================
   2:SPI_Interface.c ****  *
   3:SPI_Interface.c ****  * Copyright YOUR COMPANY, THE YEAR
   4:SPI_Interface.c ****  * All Rights Reserved
   5:SPI_Interface.c ****  * UNPUBLISHED, LICENSED SOFTWARE.
   6:SPI_Interface.c ****  *
   7:SPI_Interface.c ****  * CONFIDENTIAL AND PROPRIETARY INFORMATION
   8:SPI_Interface.c ****  * WHICH IS THE PROPERTY OF your company.
   9:SPI_Interface.c ****  *
  10:SPI_Interface.c ****  * ========================================
  11:SPI_Interface.c **** */
  12:SPI_Interface.c **** 
  13:SPI_Interface.c **** /*											 
  14:SPI_Interface.c ****  * NOTE: in the .h Lib of the SPI Slave     		   *
  15:SPI_Interface.c ****  *       you need to define SLAVE_CS_Write  		   *
  16:SPI_Interface.c ****  *       with the name of the Chip Select    		   * 
  17:SPI_Interface.c ****  *       pin (as defined in the Top Design)  		   *
  18:SPI_Interface.c ****  * E.g.: #define SLAVE_CS_Write CS_1_Write (default)   *
  19:SPI_Interface.c **** */
  20:SPI_Interface.c **** 
  21:SPI_Interface.c **** #include "SPI_Interface.h"
  22:SPI_Interface.c **** 
  23:SPI_Interface.c **** 
  24:SPI_Interface.c **** #ifndef SLAVE_CS_Write_1
  25:SPI_Interface.c ****     #define SLAVE_CS_1_Write CS_1_Write
  26:SPI_Interface.c **** #endif
  27:SPI_Interface.c **** 
  28:SPI_Interface.c **** #ifndef SLAVE_CS_Write_2
  29:SPI_Interface.c ****     #define SLAVE_CS_2_Write CS_2_Write
  30:SPI_Interface.c **** #endif
ARM GAS  C:\Users\aless\AppData\Local\Temp\cceFS11t.s 			page 2


  31:SPI_Interface.c **** 
  32:SPI_Interface.c **** /*
  33:SPI_Interface.c **** * @brief Full-Duplex, Single-Operation 1-Byte Trade on the LIS3DH
  34:SPI_Interface.c **** */
  35:SPI_Interface.c **** uint8_t SPI_Interface_tradeByte_LIS3DH(uint8_t byte) {
  28              		.loc 1 35 0
  29              		.cfi_startproc
  30              		@ args = 0, pretend = 0, frame = 0
  31              		@ frame_needed = 0, uses_anonymous_args = 0
  32              	.LVL0:
  33 0000 10B5     		push	{r4, lr}
  34              		.cfi_def_cfa_offset 8
  35              		.cfi_offset 4, -8
  36              		.cfi_offset 14, -4
  37 0002 0446     		mov	r4, r0
  36:SPI_Interface.c ****     
  37:SPI_Interface.c **** 	/* Enable the Slave */
  38:SPI_Interface.c **** 	SLAVE_CS_1_Write(0);
  38              		.loc 1 38 0
  39 0004 0020     		movs	r0, #0
  40              	.LVL1:
  41 0006 FFF7FEFF 		bl	CS_1_Write
  42              	.LVL2:
  39:SPI_Interface.c **** 	
  40:SPI_Interface.c **** 	/* Load the TX Buffer */
  41:SPI_Interface.c **** 	SPIM_LIS3DH_WriteTxData(byte);
  43              		.loc 1 41 0
  44 000a 2046     		mov	r0, r4
  45 000c FFF7FEFF 		bl	SPIM_LIS3DH_WriteTxData
  46              	.LVL3:
  47              	.L2:
  42:SPI_Interface.c **** 	
  43:SPI_Interface.c **** 	/* Wait for TX */
  44:SPI_Interface.c ****     while(!(SPIM_LIS3DH_ReadTxStatus() & SPIM_LIS3DH_STS_BYTE_COMPLETE) );
  48              		.loc 1 44 0 discriminator 1
  49 0010 FFF7FEFF 		bl	SPIM_LIS3DH_ReadTxStatus
  50              	.LVL4:
  51 0014 10F0080F 		tst	r0, #8
  52 0018 FAD0     		beq	.L2
  45:SPI_Interface.c **** 	
  46:SPI_Interface.c **** 	/* Read the RX Buffer */
  47:SPI_Interface.c **** 	uint8_t data = SPIM_LIS3DH_ReadRxData();
  53              		.loc 1 47 0
  54 001a FFF7FEFF 		bl	SPIM_LIS3DH_ReadRxData
  55              	.LVL5:
  56 001e 0446     		mov	r4, r0
  57              	.LVL6:
  48:SPI_Interface.c **** 	
  49:SPI_Interface.c **** 	/* Disable the Slave */
  50:SPI_Interface.c **** 	SLAVE_CS_1_Write(1);
  58              		.loc 1 50 0
  59 0020 0120     		movs	r0, #1
  60 0022 FFF7FEFF 		bl	CS_1_Write
  61              	.LVL7:
  51:SPI_Interface.c **** 	
  52:SPI_Interface.c **** 	return data;
  53:SPI_Interface.c ****     
ARM GAS  C:\Users\aless\AppData\Local\Temp\cceFS11t.s 			page 3


  54:SPI_Interface.c **** }
  62              		.loc 1 54 0
  63 0026 2046     		mov	r0, r4
  64 0028 10BD     		pop	{r4, pc}
  65              		.cfi_endproc
  66              	.LFE0:
  67              		.size	SPI_Interface_tradeByte_LIS3DH, .-SPI_Interface_tradeByte_LIS3DH
  68              		.section	.text.SPI_Interface_tradeByte_EEPROM,"ax",%progbits
  69              		.align	2
  70              		.global	SPI_Interface_tradeByte_EEPROM
  71              		.thumb
  72              		.thumb_func
  73              		.type	SPI_Interface_tradeByte_EEPROM, %function
  74              	SPI_Interface_tradeByte_EEPROM:
  75              	.LFB1:
  55:SPI_Interface.c **** 
  56:SPI_Interface.c **** /*
  57:SPI_Interface.c **** * @brief Full-Duplex, Single-Operation 1-Byte Trade on the EEPROM
  58:SPI_Interface.c **** */
  59:SPI_Interface.c **** uint8_t SPI_Interface_tradeByte_EEPROM(uint8_t byte) {
  76              		.loc 1 59 0
  77              		.cfi_startproc
  78              		@ args = 0, pretend = 0, frame = 0
  79              		@ frame_needed = 0, uses_anonymous_args = 0
  80              	.LVL8:
  81 0000 10B5     		push	{r4, lr}
  82              		.cfi_def_cfa_offset 8
  83              		.cfi_offset 4, -8
  84              		.cfi_offset 14, -4
  85 0002 0446     		mov	r4, r0
  60:SPI_Interface.c ****     
  61:SPI_Interface.c **** 	/* Enable the Slave */
  62:SPI_Interface.c **** 	SLAVE_CS_2_Write(0);
  86              		.loc 1 62 0
  87 0004 0020     		movs	r0, #0
  88              	.LVL9:
  89 0006 FFF7FEFF 		bl	CS_2_Write
  90              	.LVL10:
  63:SPI_Interface.c **** 	
  64:SPI_Interface.c **** 	/* Load the TX Buffer */
  65:SPI_Interface.c **** 	SPIM_EEPROM_WriteTxData(byte);
  91              		.loc 1 65 0
  92 000a 2046     		mov	r0, r4
  93 000c FFF7FEFF 		bl	SPIM_EEPROM_WriteTxData
  94              	.LVL11:
  95              	.L5:
  66:SPI_Interface.c **** 	
  67:SPI_Interface.c **** 	/* Wait for TX */
  68:SPI_Interface.c ****     while( !(SPIM_EEPROM_ReadTxStatus() & SPIM_EEPROM_STS_BYTE_COMPLETE) );
  96              		.loc 1 68 0 discriminator 1
  97 0010 FFF7FEFF 		bl	SPIM_EEPROM_ReadTxStatus
  98              	.LVL12:
  99 0014 10F0080F 		tst	r0, #8
 100 0018 FAD0     		beq	.L5
  69:SPI_Interface.c **** 	
  70:SPI_Interface.c **** 	/* Read the RX Buffer */
  71:SPI_Interface.c **** 	uint8_t data = SPIM_EEPROM_ReadRxData();
ARM GAS  C:\Users\aless\AppData\Local\Temp\cceFS11t.s 			page 4


 101              		.loc 1 71 0
 102 001a FFF7FEFF 		bl	SPIM_EEPROM_ReadRxData
 103              	.LVL13:
 104 001e 0446     		mov	r4, r0
 105              	.LVL14:
  72:SPI_Interface.c **** 	
  73:SPI_Interface.c **** 	/* Disable the Slave */
  74:SPI_Interface.c **** 	SLAVE_CS_2_Write(1);
 106              		.loc 1 74 0
 107 0020 0120     		movs	r0, #1
 108 0022 FFF7FEFF 		bl	CS_2_Write
 109              	.LVL15:
  75:SPI_Interface.c **** 	
  76:SPI_Interface.c **** 	return data;
  77:SPI_Interface.c ****     
  78:SPI_Interface.c **** }
 110              		.loc 1 78 0
 111 0026 2046     		mov	r0, r4
 112 0028 10BD     		pop	{r4, pc}
 113              		.cfi_endproc
 114              	.LFE1:
 115              		.size	SPI_Interface_tradeByte_EEPROM, .-SPI_Interface_tradeByte_EEPROM
 116 002a 00BF     		.section	.text.SPI_Interface_ReadByte_LIS3DH,"ax",%progbits
 117              		.align	2
 118              		.global	SPI_Interface_ReadByte_LIS3DH
 119              		.thumb
 120              		.thumb_func
 121              		.type	SPI_Interface_ReadByte_LIS3DH, %function
 122              	SPI_Interface_ReadByte_LIS3DH:
 123              	.LFB2:
  79:SPI_Interface.c **** 
  80:SPI_Interface.c **** /*
  81:SPI_Interface.c **** * @brief RX-only, Dual-Operation 1-Byte READ for the LIS3DH
  82:SPI_Interface.c **** */
  83:SPI_Interface.c **** uint8_t SPI_Interface_ReadByte_LIS3DH(uint8_t byteTX) {
 124              		.loc 1 83 0
 125              		.cfi_startproc
 126              		@ args = 0, pretend = 0, frame = 0
 127              		@ frame_needed = 0, uses_anonymous_args = 0
 128              	.LVL16:
 129 0000 10B5     		push	{r4, lr}
 130              		.cfi_def_cfa_offset 8
 131              		.cfi_offset 4, -8
 132              		.cfi_offset 14, -4
 133 0002 0446     		mov	r4, r0
  84:SPI_Interface.c ****     
  85:SPI_Interface.c **** 	/* Enable the Slave */
  86:SPI_Interface.c ****     SLAVE_CS_1_Write(0);
 134              		.loc 1 86 0
 135 0004 0020     		movs	r0, #0
 136              	.LVL17:
 137 0006 FFF7FEFF 		bl	CS_1_Write
 138              	.LVL18:
  87:SPI_Interface.c ****     
  88:SPI_Interface.c ****     /* Load the TX Buffer */
  89:SPI_Interface.c ****     SPIM_LIS3DH_WriteTxData(byteTX);            // first: instruction byte
 139              		.loc 1 89 0
ARM GAS  C:\Users\aless\AppData\Local\Temp\cceFS11t.s 			page 5


 140 000a 2046     		mov	r0, r4
 141 000c FFF7FEFF 		bl	SPIM_LIS3DH_WriteTxData
 142              	.LVL19:
  90:SPI_Interface.c ****     
  91:SPI_Interface.c ****     /* SPI Dummy Byte */
  92:SPI_Interface.c ****     SPIM_LIS3DH_WriteTxData(SPI_DUMMY_BYTE);    // second: dummy byte
 143              		.loc 1 92 0
 144 0010 0020     		movs	r0, #0
 145 0012 FFF7FEFF 		bl	SPIM_LIS3DH_WriteTxData
 146              	.LVL20:
 147              	.L8:
  93:SPI_Interface.c ****     
  94:SPI_Interface.c ****     /* Wait for TX/RX */
  95:SPI_Interface.c ****     while(!(SPIM_LIS3DH_ReadTxStatus() & SPIM_LIS3DH_STS_SPI_DONE));
 148              		.loc 1 95 0 discriminator 1
 149 0016 FFF7FEFF 		bl	SPIM_LIS3DH_ReadTxStatus
 150              	.LVL21:
 151 001a 10F0010F 		tst	r0, #1
 152 001e FAD0     		beq	.L8
  96:SPI_Interface.c ****     
  97:SPI_Interface.c ****     /* Read the RX Buffer */
  98:SPI_Interface.c ****     // we wrote two bytes so we need to read two bytes
  99:SPI_Interface.c ****     SPIM_LIS3DH_ReadRxData(); // nonsense
 153              		.loc 1 99 0
 154 0020 FFF7FEFF 		bl	SPIM_LIS3DH_ReadRxData
 155              	.LVL22:
 100:SPI_Interface.c ****     uint8_t byteRX = SPIM_LIS3DH_ReadRxData(); // actual data
 156              		.loc 1 100 0
 157 0024 FFF7FEFF 		bl	SPIM_LIS3DH_ReadRxData
 158              	.LVL23:
 159 0028 0446     		mov	r4, r0
 160              	.LVL24:
 101:SPI_Interface.c ****     
 102:SPI_Interface.c ****     /* Disable the Slave */
 103:SPI_Interface.c ****     SLAVE_CS_1_Write(1);
 161              		.loc 1 103 0
 162 002a 0120     		movs	r0, #1
 163 002c FFF7FEFF 		bl	CS_1_Write
 164              	.LVL25:
 104:SPI_Interface.c ****     
 105:SPI_Interface.c ****     return byteRX;
 106:SPI_Interface.c **** }
 165              		.loc 1 106 0
 166 0030 2046     		mov	r0, r4
 167 0032 10BD     		pop	{r4, pc}
 168              		.cfi_endproc
 169              	.LFE2:
 170              		.size	SPI_Interface_ReadByte_LIS3DH, .-SPI_Interface_ReadByte_LIS3DH
 171              		.section	.text.SPI_Interface_ReadByte_EEPROM,"ax",%progbits
 172              		.align	2
 173              		.global	SPI_Interface_ReadByte_EEPROM
 174              		.thumb
 175              		.thumb_func
 176              		.type	SPI_Interface_ReadByte_EEPROM, %function
 177              	SPI_Interface_ReadByte_EEPROM:
 178              	.LFB3:
 107:SPI_Interface.c **** 
ARM GAS  C:\Users\aless\AppData\Local\Temp\cceFS11t.s 			page 6


 108:SPI_Interface.c **** /*
 109:SPI_Interface.c **** * @brief RX-only, Dual-Operation 1-Byte READ for the EEPROM
 110:SPI_Interface.c **** */
 111:SPI_Interface.c **** uint8_t SPI_Interface_ReadByte_EEPROM(uint8_t byteTX) {
 179              		.loc 1 111 0
 180              		.cfi_startproc
 181              		@ args = 0, pretend = 0, frame = 0
 182              		@ frame_needed = 0, uses_anonymous_args = 0
 183              	.LVL26:
 184 0000 10B5     		push	{r4, lr}
 185              		.cfi_def_cfa_offset 8
 186              		.cfi_offset 4, -8
 187              		.cfi_offset 14, -4
 188 0002 0446     		mov	r4, r0
 112:SPI_Interface.c ****     
 113:SPI_Interface.c **** 	/* Enable the Slave */
 114:SPI_Interface.c ****     SLAVE_CS_2_Write(0);
 189              		.loc 1 114 0
 190 0004 0020     		movs	r0, #0
 191              	.LVL27:
 192 0006 FFF7FEFF 		bl	CS_2_Write
 193              	.LVL28:
 115:SPI_Interface.c ****     
 116:SPI_Interface.c ****     /* Load the TX Buffer */
 117:SPI_Interface.c ****     SPIM_EEPROM_WriteTxData(byteTX); // first: instruction byte
 194              		.loc 1 117 0
 195 000a 2046     		mov	r0, r4
 196 000c FFF7FEFF 		bl	SPIM_EEPROM_WriteTxData
 197              	.LVL29:
 118:SPI_Interface.c ****     	
 119:SPI_Interface.c ****     /* SPI Dummy Byte */
 120:SPI_Interface.c ****     SPIM_EEPROM_WriteTxData(SPI_DUMMY_BYTE); // second: dummy byte
 198              		.loc 1 120 0
 199 0010 0020     		movs	r0, #0
 200 0012 FFF7FEFF 		bl	SPIM_EEPROM_WriteTxData
 201              	.LVL30:
 202              	.L11:
 121:SPI_Interface.c ****     	
 122:SPI_Interface.c ****     /* Wait for TX/RX */
 123:SPI_Interface.c ****     while(!(SPIM_EEPROM_ReadTxStatus() & SPIM_EEPROM_STS_SPI_DONE));
 203              		.loc 1 123 0 discriminator 1
 204 0016 FFF7FEFF 		bl	SPIM_EEPROM_ReadTxStatus
 205              	.LVL31:
 206 001a 10F0010F 		tst	r0, #1
 207 001e FAD0     		beq	.L11
 124:SPI_Interface.c ****     	
 125:SPI_Interface.c ****     /* Read the RX Buffer */
 126:SPI_Interface.c ****     // we wrote two bytes so we need to read two bytes
 127:SPI_Interface.c ****     SPIM_EEPROM_ReadRxData(); // nonsense
 208              		.loc 1 127 0
 209 0020 FFF7FEFF 		bl	SPIM_EEPROM_ReadRxData
 210              	.LVL32:
 128:SPI_Interface.c ****     uint8_t byteRX = SPIM_EEPROM_ReadRxData(); // actual data
 211              		.loc 1 128 0
 212 0024 FFF7FEFF 		bl	SPIM_EEPROM_ReadRxData
 213              	.LVL33:
 214 0028 0446     		mov	r4, r0
ARM GAS  C:\Users\aless\AppData\Local\Temp\cceFS11t.s 			page 7


 215              	.LVL34:
 129:SPI_Interface.c ****     
 130:SPI_Interface.c ****     /* Disable the Slave */
 131:SPI_Interface.c ****     SLAVE_CS_2_Write(1);
 216              		.loc 1 131 0
 217 002a 0120     		movs	r0, #1
 218 002c FFF7FEFF 		bl	CS_2_Write
 219              	.LVL35:
 132:SPI_Interface.c ****     
 133:SPI_Interface.c ****     return byteRX;
 134:SPI_Interface.c **** }
 220              		.loc 1 134 0
 221 0030 2046     		mov	r0, r4
 222 0032 10BD     		pop	{r4, pc}
 223              		.cfi_endproc
 224              	.LFE3:
 225              		.size	SPI_Interface_ReadByte_EEPROM, .-SPI_Interface_ReadByte_EEPROM
 226              		.section	.text.SPI_Interface_Multi_RW_LIS3DH,"ax",%progbits
 227              		.align	2
 228              		.global	SPI_Interface_Multi_RW_LIS3DH
 229              		.thumb
 230              		.thumb_func
 231              		.type	SPI_Interface_Multi_RW_LIS3DH, %function
 232              	SPI_Interface_Multi_RW_LIS3DH:
 233              	.LFB4:
 135:SPI_Interface.c **** 
 136:SPI_Interface.c **** /*
 137:SPI_Interface.c **** * @brief RX-only, Dual-Operation Multi-Byte READ/WRITE for the LIS3DH
 138:SPI_Interface.c **** */
 139:SPI_Interface.c **** void SPI_Interface_Multi_RW_LIS3DH(uint8_t* dataTX, uint8_t bytesTX, uint8_t* dataRX, uint8_t bytes
 234              		.loc 1 139 0
 235              		.cfi_startproc
 236              		@ args = 0, pretend = 0, frame = 8
 237              		@ frame_needed = 0, uses_anonymous_args = 0
 238              	.LVL36:
 239 0000 2DE9F043 		push	{r4, r5, r6, r7, r8, r9, lr}
 240              		.cfi_def_cfa_offset 28
 241              		.cfi_offset 4, -28
 242              		.cfi_offset 5, -24
 243              		.cfi_offset 6, -20
 244              		.cfi_offset 7, -16
 245              		.cfi_offset 8, -12
 246              		.cfi_offset 9, -8
 247              		.cfi_offset 14, -4
 248 0004 83B0     		sub	sp, sp, #12
 249              		.cfi_def_cfa_offset 40
 250 0006 0646     		mov	r6, r0
 251 0008 0C46     		mov	r4, r1
 252 000a 1746     		mov	r7, r2
 253 000c 9846     		mov	r8, r3
 140:SPI_Interface.c ****     
 141:SPI_Interface.c ****     /* Enable the Slave */
 142:SPI_Interface.c ****     SLAVE_CS_1_Write(0);
 254              		.loc 1 142 0
 255 000e 0020     		movs	r0, #0
 256              	.LVL37:
 257 0010 FFF7FEFF 		bl	CS_1_Write
ARM GAS  C:\Users\aless\AppData\Local\Temp\cceFS11t.s 			page 8


 258              	.LVL38:
 143:SPI_Interface.c ****     
 144:SPI_Interface.c ****     int8_t count = bytesTX, index = 0;
 259              		.loc 1 144 0
 260 0014 64B2     		sxtb	r4, r4
 261              	.LVL39:
 262 0016 0025     		movs	r5, #0
 145:SPI_Interface.c ****     	
 146:SPI_Interface.c ****     /* Transmit Data */
 147:SPI_Interface.c ****     while ( count > 0 ) {
 263              		.loc 1 147 0
 264 0018 11E0     		b	.L14
 265              	.LVL40:
 266              	.L16:
 148:SPI_Interface.c ****     	/* Load the TX buffer with Data*/
 149:SPI_Interface.c ****         SPIM_LIS3DH_PutArray(&dataTX[index*SPI_TxBufferSize], (count > SPI_TxBufferSize ? SPI_TxBuf
 267              		.loc 1 149 0
 268 001a 2146     		mov	r1, r4
 269 001c 082C     		cmp	r4, #8
 270 001e A8BF     		it	ge
 271 0020 0821     		movge	r1, #8
 272 0022 C9B2     		uxtb	r1, r1
 273 0024 06EBC500 		add	r0, r6, r5, lsl #3
 274 0028 FFF7FEFF 		bl	SPIM_LIS3DH_PutArray
 275              	.LVL41:
 276              	.L15:
 150:SPI_Interface.c ****         /* Wait for TX */
 151:SPI_Interface.c ****         while( !(SPIM_LIS3DH_ReadTxStatus() & SPIM_LIS3DH_STS_SPI_DONE) );
 277              		.loc 1 151 0 discriminator 1
 278 002c FFF7FEFF 		bl	SPIM_LIS3DH_ReadTxStatus
 279              	.LVL42:
 280 0030 10F0010F 		tst	r0, #1
 281 0034 FAD0     		beq	.L15
 152:SPI_Interface.c ****         
 153:SPI_Interface.c ****         /* Update count */
 154:SPI_Interface.c ****         count -= SPI_TxBufferSize;
 282              		.loc 1 154 0
 283 0036 083C     		subs	r4, r4, #8
 284              	.LVL43:
 285 0038 64B2     		sxtb	r4, r4
 286              	.LVL44:
 155:SPI_Interface.c ****         index++;
 287              		.loc 1 155 0
 288 003a 0135     		adds	r5, r5, #1
 289              	.LVL45:
 290 003c 6DB2     		sxtb	r5, r5
 291              	.LVL46:
 292              	.L14:
 147:SPI_Interface.c ****     	/* Load the TX buffer with Data*/
 293              		.loc 1 147 0
 294 003e 002C     		cmp	r4, #0
 295 0040 EBDC     		bgt	.L16
 156:SPI_Interface.c ****     }
 157:SPI_Interface.c ****         
 158:SPI_Interface.c ****     /* Clear the RX Buffer */
 159:SPI_Interface.c ****     SPIM_LIS3DH_ClearFIFO();
 296              		.loc 1 159 0
ARM GAS  C:\Users\aless\AppData\Local\Temp\cceFS11t.s 			page 9


 297 0042 FFF7FEFF 		bl	SPIM_LIS3DH_ClearFIFO
 298              	.LVL47:
 160:SPI_Interface.c ****     SPIM_LIS3DH_ClearRxBuffer();
 299              		.loc 1 160 0
 300 0046 FFF7FEFF 		bl	SPIM_LIS3DH_ClearRxBuffer
 301              	.LVL48:
 161:SPI_Interface.c ****     
 162:SPI_Interface.c ****     /* Init the Dummy TX Buffer */
 163:SPI_Interface.c ****     uint8_t dummyTX[SPI_RxBufferSize];
 164:SPI_Interface.c ****     memset(dummyTX, SPI_DUMMY_BYTE, SPI_RxBufferSize);
 302              		.loc 1 164 0
 303 004a 0026     		movs	r6, #0
 304              	.LVL49:
 305 004c 0096     		str	r6, [sp]
 306 004e 0196     		str	r6, [sp, #4]
 165:SPI_Interface.c ****     
 166:SPI_Interface.c ****     /* Update count for RX */
 167:SPI_Interface.c ****     count = bytesRX;
 307              		.loc 1 167 0
 308 0050 4FFA88F8 		sxtb	r8, r8
 309              	.LVL50:
 168:SPI_Interface.c ****     index = 0;
 169:SPI_Interface.c ****         
 170:SPI_Interface.c ****     /* Get the RX Data */
 171:SPI_Interface.c ****     while ( count > 0 ) {
 310              		.loc 1 171 0
 311 0054 20E0     		b	.L17
 312              	.LVL51:
 313              	.L21:
 172:SPI_Interface.c ****         /* Load the TX buffer with Dummy Bytes*/
 173:SPI_Interface.c ****         SPIM_LIS3DH_PutArray(dummyTX, (count > SPI_TxBufferSize ? SPI_TxBufferSize : count));
 314              		.loc 1 173 0
 315 0056 C146     		mov	r9, r8
 316 0058 B8F1080F 		cmp	r8, #8
 317 005c A8BF     		it	ge
 318 005e 4FF00809 		movge	r9, #8
 319 0062 5FFA89F1 		uxtb	r1, r9
 320 0066 6846     		mov	r0, sp
 321 0068 FFF7FEFF 		bl	SPIM_LIS3DH_PutArray
 322              	.LVL52:
 323              	.L18:
 174:SPI_Interface.c ****         /* Wait for TX */
 175:SPI_Interface.c ****         while( !(SPIM_LIS3DH_ReadTxStatus() & SPIM_LIS3DH_STS_SPI_DONE) );
 324              		.loc 1 175 0 discriminator 1
 325 006c FFF7FEFF 		bl	SPIM_LIS3DH_ReadTxStatus
 326              	.LVL53:
 327 0070 10F0010F 		tst	r0, #1
 328 0074 FAD0     		beq	.L18
 329 0076 0024     		movs	r4, #0
 330 0078 06E0     		b	.L19
 331              	.LVL54:
 332              	.L20:
 333              	.LBB2:
 176:SPI_Interface.c ****         /* Read the RX Buffer */
 177:SPI_Interface.c ****         for( uint8_t j = 0; j < (count > SPI_TxBufferSize ? SPI_TxBufferSize : count); j++ ) {
 178:SPI_Interface.c ****             dataRX[j + index*SPI_RxBufferSize] = SPIM_LIS3DH_ReadRxData();   
 334              		.loc 1 178 0 discriminator 3
ARM GAS  C:\Users\aless\AppData\Local\Temp\cceFS11t.s 			page 10


 335 007a 04EBC605 		add	r5, r4, r6, lsl #3
 336 007e FFF7FEFF 		bl	SPIM_LIS3DH_ReadRxData
 337              	.LVL55:
 338 0082 7855     		strb	r0, [r7, r5]
 177:SPI_Interface.c ****             dataRX[j + index*SPI_RxBufferSize] = SPIM_LIS3DH_ReadRxData();   
 339              		.loc 1 177 0 discriminator 3
 340 0084 0134     		adds	r4, r4, #1
 341              	.LVL56:
 342 0086 E4B2     		uxtb	r4, r4
 343              	.LVL57:
 344              	.L19:
 177:SPI_Interface.c ****             dataRX[j + index*SPI_RxBufferSize] = SPIM_LIS3DH_ReadRxData();   
 345              		.loc 1 177 0 is_stmt 0 discriminator 1
 346 0088 4C45     		cmp	r4, r9
 347 008a F6DB     		blt	.L20
 348              	.LBE2:
 179:SPI_Interface.c ****         }
 180:SPI_Interface.c ****         
 181:SPI_Interface.c ****         count -= SPI_RxBufferSize;
 349              		.loc 1 181 0 is_stmt 1
 350 008c A8F10808 		sub	r8, r8, #8
 351              	.LVL58:
 352 0090 4FFA88F8 		sxtb	r8, r8
 353              	.LVL59:
 182:SPI_Interface.c ****         index++;
 354              		.loc 1 182 0
 355 0094 0136     		adds	r6, r6, #1
 356              	.LVL60:
 357 0096 76B2     		sxtb	r6, r6
 358              	.LVL61:
 359              	.L17:
 171:SPI_Interface.c ****         /* Load the TX buffer with Dummy Bytes*/
 360              		.loc 1 171 0
 361 0098 B8F1000F 		cmp	r8, #0
 362 009c DBDC     		bgt	.L21
 183:SPI_Interface.c ****     }
 184:SPI_Interface.c ****     
 185:SPI_Interface.c ****     /* Disable the Slave */
 186:SPI_Interface.c ****     SLAVE_CS_1_Write(1);
 363              		.loc 1 186 0
 364 009e 0120     		movs	r0, #1
 365 00a0 FFF7FEFF 		bl	CS_1_Write
 366              	.LVL62:
 187:SPI_Interface.c ****     
 188:SPI_Interface.c ****     /* Clear */
 189:SPI_Interface.c ****     SPIM_LIS3DH_ClearFIFO();
 367              		.loc 1 189 0
 368 00a4 FFF7FEFF 		bl	SPIM_LIS3DH_ClearFIFO
 369              	.LVL63:
 190:SPI_Interface.c ****     SPIM_LIS3DH_ClearRxBuffer();
 370              		.loc 1 190 0
 371 00a8 FFF7FEFF 		bl	SPIM_LIS3DH_ClearRxBuffer
 372              	.LVL64:
 191:SPI_Interface.c ****     SPIM_LIS3DH_ClearTxBuffer();
 373              		.loc 1 191 0
 374 00ac FFF7FEFF 		bl	SPIM_LIS3DH_ClearTxBuffer
 375              	.LVL65:
ARM GAS  C:\Users\aless\AppData\Local\Temp\cceFS11t.s 			page 11


 192:SPI_Interface.c **** }
 376              		.loc 1 192 0
 377 00b0 03B0     		add	sp, sp, #12
 378              		.cfi_def_cfa_offset 28
 379              		@ sp needed
 380 00b2 BDE8F083 		pop	{r4, r5, r6, r7, r8, r9, pc}
 381              		.cfi_endproc
 382              	.LFE4:
 383              		.size	SPI_Interface_Multi_RW_LIS3DH, .-SPI_Interface_Multi_RW_LIS3DH
 384 00b6 00BF     		.section	.text.SPI_Interface_Multi_RW_EEPROM,"ax",%progbits
 385              		.align	2
 386              		.global	SPI_Interface_Multi_RW_EEPROM
 387              		.thumb
 388              		.thumb_func
 389              		.type	SPI_Interface_Multi_RW_EEPROM, %function
 390              	SPI_Interface_Multi_RW_EEPROM:
 391              	.LFB5:
 193:SPI_Interface.c **** 
 194:SPI_Interface.c **** /*
 195:SPI_Interface.c **** * @brief RX-only, Dual-Operation Multi-Byte READ/WRITE for the EEPROM
 196:SPI_Interface.c **** */
 197:SPI_Interface.c **** void SPI_Interface_Multi_RW_EEPROM(uint8_t* dataTX, uint8_t bytesTX, uint8_t* dataRX, uint8_t bytes
 392              		.loc 1 197 0
 393              		.cfi_startproc
 394              		@ args = 0, pretend = 0, frame = 8
 395              		@ frame_needed = 0, uses_anonymous_args = 0
 396              	.LVL66:
 397 0000 2DE9F043 		push	{r4, r5, r6, r7, r8, r9, lr}
 398              		.cfi_def_cfa_offset 28
 399              		.cfi_offset 4, -28
 400              		.cfi_offset 5, -24
 401              		.cfi_offset 6, -20
 402              		.cfi_offset 7, -16
 403              		.cfi_offset 8, -12
 404              		.cfi_offset 9, -8
 405              		.cfi_offset 14, -4
 406 0004 83B0     		sub	sp, sp, #12
 407              		.cfi_def_cfa_offset 40
 408 0006 0646     		mov	r6, r0
 409 0008 0C46     		mov	r4, r1
 410 000a 1746     		mov	r7, r2
 411 000c 9846     		mov	r8, r3
 198:SPI_Interface.c ****     
 199:SPI_Interface.c ****     /* Enable the Slave */
 200:SPI_Interface.c ****     SLAVE_CS_2_Write(0);
 412              		.loc 1 200 0
 413 000e 0020     		movs	r0, #0
 414              	.LVL67:
 415 0010 FFF7FEFF 		bl	CS_2_Write
 416              	.LVL68:
 201:SPI_Interface.c ****     
 202:SPI_Interface.c ****     int8_t count = bytesTX, index = 0;
 417              		.loc 1 202 0
 418 0014 64B2     		sxtb	r4, r4
 419              	.LVL69:
 420 0016 0025     		movs	r5, #0
 203:SPI_Interface.c ****     
ARM GAS  C:\Users\aless\AppData\Local\Temp\cceFS11t.s 			page 12


 204:SPI_Interface.c ****     /* Transmit Data */
 205:SPI_Interface.c ****     while ( count > 0 ) {
 421              		.loc 1 205 0
 422 0018 11E0     		b	.L24
 423              	.LVL70:
 424              	.L26:
 206:SPI_Interface.c ****     	/* Load the TX buffer with Data*/
 207:SPI_Interface.c ****         SPIM_EEPROM_PutArray(&dataTX[index*SPI_TxBufferSize], (count > SPI_TxBufferSize ? SPI_TxBuf
 425              		.loc 1 207 0
 426 001a 2146     		mov	r1, r4
 427 001c 082C     		cmp	r4, #8
 428 001e A8BF     		it	ge
 429 0020 0821     		movge	r1, #8
 430 0022 C9B2     		uxtb	r1, r1
 431 0024 06EBC500 		add	r0, r6, r5, lsl #3
 432 0028 FFF7FEFF 		bl	SPIM_EEPROM_PutArray
 433              	.LVL71:
 434              	.L25:
 208:SPI_Interface.c ****         /* Wait for TX */
 209:SPI_Interface.c ****         while( !(SPIM_EEPROM_ReadTxStatus() & SPIM_EEPROM_STS_SPI_DONE) );
 435              		.loc 1 209 0 discriminator 1
 436 002c FFF7FEFF 		bl	SPIM_EEPROM_ReadTxStatus
 437              	.LVL72:
 438 0030 10F0010F 		tst	r0, #1
 439 0034 FAD0     		beq	.L25
 210:SPI_Interface.c ****         
 211:SPI_Interface.c ****         /* Update count */
 212:SPI_Interface.c ****         count -= SPI_TxBufferSize;
 440              		.loc 1 212 0
 441 0036 083C     		subs	r4, r4, #8
 442              	.LVL73:
 443 0038 64B2     		sxtb	r4, r4
 444              	.LVL74:
 213:SPI_Interface.c ****         index++;
 445              		.loc 1 213 0
 446 003a 0135     		adds	r5, r5, #1
 447              	.LVL75:
 448 003c 6DB2     		sxtb	r5, r5
 449              	.LVL76:
 450              	.L24:
 205:SPI_Interface.c ****     	/* Load the TX buffer with Data*/
 451              		.loc 1 205 0
 452 003e 002C     		cmp	r4, #0
 453 0040 EBDC     		bgt	.L26
 214:SPI_Interface.c ****     }
 215:SPI_Interface.c ****     
 216:SPI_Interface.c ****     /* Clear the RX Buffer */
 217:SPI_Interface.c ****     SPIM_EEPROM_ClearFIFO();
 454              		.loc 1 217 0
 455 0042 FFF7FEFF 		bl	SPIM_EEPROM_ClearFIFO
 456              	.LVL77:
 218:SPI_Interface.c ****     SPIM_EEPROM_ClearRxBuffer();
 457              		.loc 1 218 0
 458 0046 FFF7FEFF 		bl	SPIM_EEPROM_ClearRxBuffer
 459              	.LVL78:
 219:SPI_Interface.c ****     
 220:SPI_Interface.c ****     /* Init the Dummy TX Buffer */
ARM GAS  C:\Users\aless\AppData\Local\Temp\cceFS11t.s 			page 13


 221:SPI_Interface.c ****     uint8_t dummyTX[SPI_RxBufferSize];
 222:SPI_Interface.c ****     memset(dummyTX, SPI_DUMMY_BYTE, SPI_RxBufferSize);
 460              		.loc 1 222 0
 461 004a 0026     		movs	r6, #0
 462              	.LVL79:
 463 004c 0096     		str	r6, [sp]
 464 004e 0196     		str	r6, [sp, #4]
 223:SPI_Interface.c ****     
 224:SPI_Interface.c ****     /* Update count for RX */
 225:SPI_Interface.c ****     count = bytesRX;
 465              		.loc 1 225 0
 466 0050 4FFA88F8 		sxtb	r8, r8
 467              	.LVL80:
 226:SPI_Interface.c ****     index = 0;
 227:SPI_Interface.c ****     
 228:SPI_Interface.c ****     /* Get the RX Data */
 229:SPI_Interface.c ****     while ( count > 0 ) {
 468              		.loc 1 229 0
 469 0054 20E0     		b	.L27
 470              	.LVL81:
 471              	.L31:
 230:SPI_Interface.c ****         /* Load the TX buffer with Dummy Bytes*/
 231:SPI_Interface.c ****         SPIM_EEPROM_PutArray(dummyTX, (count > SPI_TxBufferSize ? SPI_TxBufferSize : count));
 472              		.loc 1 231 0
 473 0056 C146     		mov	r9, r8
 474 0058 B8F1080F 		cmp	r8, #8
 475 005c A8BF     		it	ge
 476 005e 4FF00809 		movge	r9, #8
 477 0062 5FFA89F1 		uxtb	r1, r9
 478 0066 6846     		mov	r0, sp
 479 0068 FFF7FEFF 		bl	SPIM_EEPROM_PutArray
 480              	.LVL82:
 481              	.L28:
 232:SPI_Interface.c ****         /* Wait for TX */
 233:SPI_Interface.c ****         while( !(SPIM_EEPROM_ReadTxStatus() & SPIM_EEPROM_STS_SPI_DONE) );
 482              		.loc 1 233 0 discriminator 1
 483 006c FFF7FEFF 		bl	SPIM_EEPROM_ReadTxStatus
 484              	.LVL83:
 485 0070 10F0010F 		tst	r0, #1
 486 0074 FAD0     		beq	.L28
 487 0076 0024     		movs	r4, #0
 488 0078 06E0     		b	.L29
 489              	.LVL84:
 490              	.L30:
 491              	.LBB3:
 234:SPI_Interface.c ****         /* Read the RX Buffer */
 235:SPI_Interface.c ****         for( uint8_t j = 0; j < (count > SPI_TxBufferSize ? SPI_TxBufferSize : count); j++ ) {
 236:SPI_Interface.c ****             dataRX[j + index*SPI_RxBufferSize] = SPIM_EEPROM_ReadRxData();
 492              		.loc 1 236 0 discriminator 3
 493 007a 04EBC605 		add	r5, r4, r6, lsl #3
 494 007e FFF7FEFF 		bl	SPIM_EEPROM_ReadRxData
 495              	.LVL85:
 496 0082 7855     		strb	r0, [r7, r5]
 235:SPI_Interface.c ****             dataRX[j + index*SPI_RxBufferSize] = SPIM_EEPROM_ReadRxData();
 497              		.loc 1 235 0 discriminator 3
 498 0084 0134     		adds	r4, r4, #1
 499              	.LVL86:
ARM GAS  C:\Users\aless\AppData\Local\Temp\cceFS11t.s 			page 14


 500 0086 E4B2     		uxtb	r4, r4
 501              	.LVL87:
 502              	.L29:
 235:SPI_Interface.c ****             dataRX[j + index*SPI_RxBufferSize] = SPIM_EEPROM_ReadRxData();
 503              		.loc 1 235 0 is_stmt 0 discriminator 1
 504 0088 4C45     		cmp	r4, r9
 505 008a F6DB     		blt	.L30
 506              	.LBE3:
 237:SPI_Interface.c ****         }
 238:SPI_Interface.c ****         
 239:SPI_Interface.c ****         count -= SPI_RxBufferSize;
 507              		.loc 1 239 0 is_stmt 1
 508 008c A8F10808 		sub	r8, r8, #8
 509              	.LVL88:
 510 0090 4FFA88F8 		sxtb	r8, r8
 511              	.LVL89:
 240:SPI_Interface.c ****         index++;
 512              		.loc 1 240 0
 513 0094 0136     		adds	r6, r6, #1
 514              	.LVL90:
 515 0096 76B2     		sxtb	r6, r6
 516              	.LVL91:
 517              	.L27:
 229:SPI_Interface.c ****         /* Load the TX buffer with Dummy Bytes*/
 518              		.loc 1 229 0
 519 0098 B8F1000F 		cmp	r8, #0
 520 009c DBDC     		bgt	.L31
 241:SPI_Interface.c ****     }
 242:SPI_Interface.c ****     
 243:SPI_Interface.c ****     /* Disable the Slave */
 244:SPI_Interface.c ****     SLAVE_CS_2_Write(1);
 521              		.loc 1 244 0
 522 009e 0120     		movs	r0, #1
 523 00a0 FFF7FEFF 		bl	CS_2_Write
 524              	.LVL92:
 245:SPI_Interface.c ****     
 246:SPI_Interface.c ****     /* Clear */
 247:SPI_Interface.c ****     SPIM_EEPROM_ClearFIFO();
 525              		.loc 1 247 0
 526 00a4 FFF7FEFF 		bl	SPIM_EEPROM_ClearFIFO
 527              	.LVL93:
 248:SPI_Interface.c ****     SPIM_EEPROM_ClearRxBuffer();
 528              		.loc 1 248 0
 529 00a8 FFF7FEFF 		bl	SPIM_EEPROM_ClearRxBuffer
 530              	.LVL94:
 249:SPI_Interface.c ****     SPIM_EEPROM_ClearTxBuffer();
 531              		.loc 1 249 0
 532 00ac FFF7FEFF 		bl	SPIM_EEPROM_ClearTxBuffer
 533              	.LVL95:
 250:SPI_Interface.c ****     
 251:SPI_Interface.c **** }
 534              		.loc 1 251 0
 535 00b0 03B0     		add	sp, sp, #12
 536              		.cfi_def_cfa_offset 28
 537              		@ sp needed
 538 00b2 BDE8F083 		pop	{r4, r5, r6, r7, r8, r9, pc}
 539              		.cfi_endproc
ARM GAS  C:\Users\aless\AppData\Local\Temp\cceFS11t.s 			page 15


 540              	.LFE5:
 541              		.size	SPI_Interface_Multi_RW_EEPROM, .-SPI_Interface_Multi_RW_EEPROM
 542 00b6 00BF     		.text
 543              	.Letext0:
 544              		.file 2 "c:\\program files (x86)\\cypress\\psoc creator\\4.3\\psoc creator\\import\\gnu\\arm\\5.4.
 545              		.file 3 "c:\\program files (x86)\\cypress\\psoc creator\\4.3\\psoc creator\\import\\gnu\\arm\\5.4.
 546              		.file 4 "Generated_Source\\PSoC5/cytypes.h"
 547              		.file 5 "Generated_Source\\PSoC5/CS_1.h"
 548              		.file 6 "Generated_Source\\PSoC5/SPIM_LIS3DH.h"
 549              		.file 7 "Generated_Source\\PSoC5/CS_2.h"
 550              		.file 8 "Generated_Source\\PSoC5/SPIM_EEPROM.h"